ARM GAS  C:\Users\Marc\AppData\Local\Temp\cc1g9l0Y.s 			page 1


   1              		.cpu cortex-m4
   2              		.eabi_attribute 27, 1
   3              		.eabi_attribute 28, 1
   4              		.eabi_attribute 20, 1
   5              		.eabi_attribute 21, 1
   6              		.eabi_attribute 23, 3
   7              		.eabi_attribute 24, 1
   8              		.eabi_attribute 25, 1
   9              		.eabi_attribute 26, 1
  10              		.eabi_attribute 30, 2
  11              		.eabi_attribute 34, 1
  12              		.eabi_attribute 18, 4
  13              		.file	"audio_processing.c"
  14              		.text
  15              	.Ltext0:
  16              		.cfi_sections	.debug_frame
  17              		.section	.text.sound_remote,"ax",%progbits
  18              		.align	1
  19              		.p2align 4,,15
  20              		.global	sound_remote
  21              		.syntax unified
  22              		.thumb
  23              		.thumb_func
  24              		.fpu fpv4-sp-d16
  25              		.type	sound_remote, %function
  26              	sound_remote:
  27              	.LFB293:
  28              		.file 1 "audio_processing.c"
  29              		.loc 1 68 0
  30              		.cfi_startproc
  31              		@ args = 0, pretend = 0, frame = 8
  32              		@ frame_needed = 0, uses_anonymous_args = 0
  33              	.LVL0:
  34 0000 00B5     		push	{lr}
  35              		.cfi_def_cfa_offset 4
  36              		.cfi_offset 14, -4
  37 0002 4049     		ldr	r1, .L36
  38              		.loc 1 69 0
  39 0004 9FED407A 		vldr.32	s14, .L36+4
  40              		.loc 1 68 0
  41 0008 0B68     		ldr	r3, [r1]
  42 000a 83B0     		sub	sp, sp, #12
  43              		.cfi_def_cfa_offset 16
  44 000c 2830     		adds	r0, r0, #40
  45              	.LVL1:
  46              		.loc 1 68 0
  47 000e 0193     		str	r3, [sp, #4]
  48              	.LVL2:
  49              		.loc 1 70 0
  50 0010 4FF0FF32 		mov	r2, #-1
  51              		.loc 1 68 0
  52 0014 0A23     		movs	r3, #10
  53              	.LVL3:
  54              	.L4:
  55              	.LBB30:
  56              		.loc 1 76 0
  57 0016 F0EC017A 		vldmia.32	r0!, {s15}
ARM GAS  C:\Users\Marc\AppData\Local\Temp\cc1g9l0Y.s 			page 2


  58 001a F4EEC77A 		vcmpe.f32	s15, s14
  59 001e F1EE10FA 		vmrs	APSR_nzcv, FPSCR
  60              	.LVL4:
  61              		.loc 1 78 0
  62 0022 C8BF     		it	gt
  63 0024 1AB2     		sxthgt	r2, r3
  64              	.LVL5:
  65 0026 03F10103 		add	r3, r3, #1
  66              	.LVL6:
  67              		.loc 1 77 0
  68 002a C8BF     		it	gt
  69 002c B0EE677A 		vmovgt.f32	s14, s15
  70              	.LVL7:
  71              		.loc 1 75 0
  72 0030 CE2B     		cmp	r3, #206
  73 0032 F0D1     		bne	.L4
  74              	.LBE30:
  75              		.loc 1 82 0
  76 0034 92B2     		uxth	r2, r2
  77 0036 A2F10F03 		sub	r3, r2, #15
  78 003a 022B     		cmp	r3, #2
  79 003c 2ED9     		bls	.L28
  80              		.loc 1 85 0
  81 003e A2F11203 		sub	r3, r2, #18
  82 0042 022B     		cmp	r3, #2
  83 0044 1FD9     		bls	.L29
  84              		.loc 1 88 0
  85 0046 A2F11603 		sub	r3, r2, #22
  86 004a 022B     		cmp	r3, #2
  87 004c 2ED9     		bls	.L30
  88              		.loc 1 91 0
  89 004e A2F11903 		sub	r3, r2, #25
  90 0052 022B     		cmp	r3, #2
  91 0054 3FD9     		bls	.L31
  92              		.loc 1 94 0
  93 0056 A2F18F03 		sub	r3, r2, #143
  94 005a 022B     		cmp	r3, #2
  95 005c 31D9     		bls	.L32
  96              		.loc 1 97 0
  97 005e A2F19B03 		sub	r3, r2, #155
  98 0062 022B     		cmp	r3, #2
  99 0064 42D9     		bls	.L33
 100              		.loc 1 100 0
 101 0066 A2F1A303 		sub	r3, r2, #163
 102 006a 022B     		cmp	r3, #2
 103 006c 42D9     		bls	.L34
 104              		.loc 1 103 0
 105 006e A2F1B303 		sub	r3, r2, #179
 106 0072 022B     		cmp	r3, #2
 107 0074 42D9     		bls	.L35
 108              		.loc 1 106 0
 109 0076 C43A     		subs	r2, r2, #196
 110 0078 022A     		cmp	r2, #2
 111              		.loc 1 107 0
 112 007a 244B     		ldr	r3, .L36+8
 113 007c 94BF     		ite	ls
 114 007e 0522     		movls	r2, #5
ARM GAS  C:\Users\Marc\AppData\Local\Temp\cc1g9l0Y.s 			page 3


 115              		.loc 1 108 0
 116 0080 0022     		movhi	r2, #0
 117 0082 1A70     		strb	r2, [r3]
 118              		.loc 1 109 0
 119 0084 20E0     		b	.L1
 120              	.L29:
 121              	.LVL8:
 122              		.loc 1 86 0
 123 0086 019A     		ldr	r2, [sp, #4]
 124 0088 0B68     		ldr	r3, [r1]
 125 008a 9A42     		cmp	r2, r3
 126 008c 08BF     		it	eq
 127 008e 0120     		moveq	r0, #1
 128 0090 0AD1     		bne	.L24
 129              	.LVL9:
 130              	.L23:
 131              		.loc 1 109 0
 132 0092 03B0     		add	sp, sp, #12
 133              		.cfi_remember_state
 134              		.cfi_def_cfa_offset 4
 135              		@ sp needed
 136 0094 5DF804EB 		ldr	lr, [sp], #4
 137              		.cfi_restore 14
 138              		.cfi_def_cfa_offset 0
 139              		.loc 1 92 0
 140 0098 FFF7FEBF 		b	state_compare
 141              	.LVL10:
 142              	.L28:
 143              		.cfi_restore_state
 144              		.loc 1 83 0
 145 009c 019A     		ldr	r2, [sp, #4]
 146 009e 0B68     		ldr	r3, [r1]
 147 00a0 9A42     		cmp	r2, r3
 148 00a2 08BF     		it	eq
 149 00a4 0020     		moveq	r0, #0
 150 00a6 F4D0     		beq	.L23
 151              	.LVL11:
 152              	.L24:
 153              		.loc 1 109 0
 154 00a8 FFF7FEFF 		bl	__stack_chk_fail
 155              	.LVL12:
 156              	.L30:
 157              		.loc 1 89 0
 158 00ac 019A     		ldr	r2, [sp, #4]
 159 00ae 0B68     		ldr	r3, [r1]
 160 00b0 9A42     		cmp	r2, r3
 161 00b2 08BF     		it	eq
 162 00b4 0320     		moveq	r0, #3
 163 00b6 F7D1     		bne	.L24
 164              		.loc 1 109 0
 165 00b8 03B0     		add	sp, sp, #12
 166              		.cfi_remember_state
 167              		.cfi_def_cfa_offset 4
 168              		@ sp needed
 169 00ba 5DF804EB 		ldr	lr, [sp], #4
 170              		.cfi_restore 14
 171              		.cfi_def_cfa_offset 0
ARM GAS  C:\Users\Marc\AppData\Local\Temp\cc1g9l0Y.s 			page 4


 172              		.loc 1 92 0
 173 00be FFF7FEBF 		b	state_compare
 174              	.LVL13:
 175              	.L32:
 176              		.cfi_restore_state
 177              		.loc 1 95 0
 178 00c2 124B     		ldr	r3, .L36+8
 179 00c4 0122     		movs	r2, #1
 180 00c6 1A70     		strb	r2, [r3]
 181              	.L1:
 182              		.loc 1 109 0
 183 00c8 019A     		ldr	r2, [sp, #4]
 184 00ca 0B68     		ldr	r3, [r1]
 185 00cc 9A42     		cmp	r2, r3
 186 00ce EBD1     		bne	.L24
 187 00d0 03B0     		add	sp, sp, #12
 188              		.cfi_remember_state
 189              		.cfi_def_cfa_offset 4
 190              		@ sp needed
 191 00d2 5DF804FB 		ldr	pc, [sp], #4
 192              	.L31:
 193              		.cfi_restore_state
 194              	.LVL14:
 195              		.loc 1 92 0
 196 00d6 019A     		ldr	r2, [sp, #4]
 197 00d8 0B68     		ldr	r3, [r1]
 198 00da 9A42     		cmp	r2, r3
 199 00dc 08BF     		it	eq
 200 00de 0420     		moveq	r0, #4
 201 00e0 E2D1     		bne	.L24
 202              		.loc 1 109 0
 203 00e2 03B0     		add	sp, sp, #12
 204              		.cfi_remember_state
 205              		.cfi_def_cfa_offset 4
 206              		@ sp needed
 207 00e4 5DF804EB 		ldr	lr, [sp], #4
 208              		.cfi_restore 14
 209              		.cfi_def_cfa_offset 0
 210              		.loc 1 92 0
 211 00e8 FFF7FEBF 		b	state_compare
 212              	.LVL15:
 213              	.L33:
 214              		.cfi_restore_state
 215              		.loc 1 98 0
 216 00ec 074B     		ldr	r3, .L36+8
 217 00ee 0222     		movs	r2, #2
 218 00f0 1A70     		strb	r2, [r3]
 219 00f2 E9E7     		b	.L1
 220              	.L34:
 221              		.loc 1 101 0
 222 00f4 054B     		ldr	r3, .L36+8
 223 00f6 0322     		movs	r2, #3
 224 00f8 1A70     		strb	r2, [r3]
 225 00fa E5E7     		b	.L1
 226              	.L35:
 227              		.loc 1 104 0
 228 00fc 034B     		ldr	r3, .L36+8
ARM GAS  C:\Users\Marc\AppData\Local\Temp\cc1g9l0Y.s 			page 5


 229 00fe 0422     		movs	r2, #4
 230 0100 1A70     		strb	r2, [r3]
 231 0102 E1E7     		b	.L1
 232              	.L37:
 233              		.align	2
 234              	.L36:
 235 0104 00000000 		.word	__stack_chk_guard
 236 0108 00401C46 		.word	1176256512
 237 010c 00000000 		.word	.LANCHOR0
 238              		.cfi_endproc
 239              	.LFE293:
 240              		.size	sound_remote, .-sound_remote
 241              		.section	.text.processAudioData,"ax",%progbits
 242              		.align	1
 243              		.p2align 4,,15
 244              		.global	processAudioData
 245              		.syntax unified
 246              		.thumb
 247              		.thumb_func
 248              		.fpu fpv4-sp-d16
 249              		.type	processAudioData, %function
 250              	processAudioData:
 251              	.LFB294:
 252              		.loc 1 120 0
 253              		.cfi_startproc
 254              		@ args = 0, pretend = 0, frame = 8
 255              		@ frame_needed = 0, uses_anonymous_args = 0
 256              	.LVL16:
 257 0000 F0B5     		push	{r4, r5, r6, r7, lr}
 258              		.cfi_def_cfa_offset 20
 259              		.cfi_offset 4, -20
 260              		.cfi_offset 5, -16
 261              		.cfi_offset 6, -12
 262              		.cfi_offset 7, -8
 263              		.cfi_offset 14, -4
 264 0002 4E4E     		ldr	r6, .L61
 265 0004 4E4D     		ldr	r5, .L61+4
 266 0006 3368     		ldr	r3, [r6]
 267 0008 83B0     		sub	sp, sp, #12
 268              		.cfi_def_cfa_offset 32
 269              		.loc 1 120 0
 270 000a 0193     		str	r3, [sp, #4]
 271              	.LVL17:
 272 000c 2B88     		ldrh	r3, [r5]
 273              	.LBB46:
 274              		.loc 1 134 0
 275 000e 0029     		cmp	r1, #0
 276 0010 00F08980 		beq	.L39
 277              		.loc 1 137 0
 278 0014 B0F90220 		ldrsh	r2, [r0, #2]
 279 0018 4A4C     		ldr	r4, .L61+8
 280 001a 07EE902A 		vmov	s15, r2	@ int
 281              		.loc 1 141 0
 282 001e 5A1C     		adds	r2, r3, #1
 283              		.loc 1 137 0
 284 0020 04EB8307 		add	r7, r4, r3, lsl #2
 285              		.loc 1 144 0
ARM GAS  C:\Users\Marc\AppData\Local\Temp\cc1g9l0Y.s 			page 6


 286 0024 92B2     		uxth	r2, r2
 287              		.loc 1 148 0
 288 0026 0233     		adds	r3, r3, #2
 289 0028 9BB2     		uxth	r3, r3
 290              		.loc 1 137 0
 291 002a F8EEE77A 		vcvt.f32.s32	s15, s15
 292              		.loc 1 144 0
 293 002e 04EB8202 		add	r2, r4, r2, lsl #2
 294 0032 4FF0000E 		mov	lr, #0
 295              		.loc 1 151 0
 296 0036 B3F5006F 		cmp	r3, #2048
 297              		.loc 1 137 0
 298 003a C7ED007A 		vstr.32	s15, [r7]
 299              		.loc 1 148 0
 300 003e 2B80     		strh	r3, [r5]	@ movhi
 301              		.loc 1 144 0
 302 0040 C2F800E0 		str	lr, [r2]	@ float
 303              		.loc 1 151 0
 304 0044 2CD2     		bcs	.L40
 305 0046 0139     		subs	r1, r1, #1
 306              	.LVL18:
 307 0048 C1F38D01 		ubfx	r1, r1, #2, #14
 308 004c 00EBC101 		add	r1, r0, r1, lsl #3
 309 0050 0027     		movs	r7, #0
 310 0052 1AE0     		b	.L41
 311              	.LVL19:
 312              	.L43:
 313              		.loc 1 137 0
 314 0054 B0F90A20 		ldrsh	r2, [r0, #10]
 315 0058 07EE902A 		vmov	s15, r2	@ int
 316              		.loc 1 144 0
 317 005c 5A1C     		adds	r2, r3, #1
 318 005e 92B2     		uxth	r2, r2
 319              		.loc 1 148 0
 320 0060 03F1020C 		add	ip, r3, #2
 321              		.loc 1 137 0
 322 0064 04EB8307 		add	r7, r4, r3, lsl #2
 323 0068 F8EEE77A 		vcvt.f32.s32	s15, s15
 324              		.loc 1 144 0
 325 006c 04EB8202 		add	r2, r4, r2, lsl #2
 326              		.loc 1 148 0
 327 0070 1FFA8CF3 		uxth	r3, ip
 328              		.loc 1 151 0
 329 0074 B3F5006F 		cmp	r3, #2048
 330              		.loc 1 137 0
 331 0078 C7ED007A 		vstr.32	s15, [r7]
 332 007c 00F10800 		add	r0, r0, #8
 333 0080 4FF00107 		mov	r7, #1
 334              		.loc 1 144 0
 335 0084 C2F800E0 		str	lr, [r2]	@ float
 336              		.loc 1 151 0
 337 0088 09D2     		bcs	.L42
 338              	.L41:
 339              		.loc 1 134 0 discriminator 2
 340 008a 8842     		cmp	r0, r1
 341 008c E2D1     		bne	.L43
 342 008e 002F     		cmp	r7, #0
ARM GAS  C:\Users\Marc\AppData\Local\Temp\cc1g9l0Y.s 			page 7


 343 0090 50D1     		bne	.L58
 344              	.L38:
 345              	.LBE46:
 346              		.loc 1 192 0
 347 0092 019A     		ldr	r2, [sp, #4]
 348 0094 3368     		ldr	r3, [r6]
 349 0096 9A42     		cmp	r2, r3
 350 0098 4ED1     		bne	.L57
 351 009a 03B0     		add	sp, sp, #12
 352              		.cfi_remember_state
 353              		.cfi_def_cfa_offset 20
 354              		@ sp needed
 355 009c F0BD     		pop	{r4, r5, r6, r7, pc}
 356              	.L42:
 357              		.cfi_restore_state
 358 009e 2B80     		strh	r3, [r5]	@ movhi
 359              	.L40:
 360              		.loc 1 164 0
 361 00a0 2849     		ldr	r1, .L61+8
 362              		.loc 1 182 0
 363 00a2 294C     		ldr	r4, .L61+12
 364              		.loc 1 164 0
 365 00a4 4FF48060 		mov	r0, #1024
 366 00a8 FFF7FEFF 		bl	doFFT_optimized
 367              	.LVL20:
 368              		.loc 1 176 0
 369 00ac 4FF48062 		mov	r2, #1024
 370 00b0 2649     		ldr	r1, .L61+16
 371 00b2 2448     		ldr	r0, .L61+8
 372 00b4 FFF7FEFF 		bl	arm_cmplx_mag_f32
 373              	.LVL21:
 374              		.loc 1 182 0
 375 00b8 2378     		ldrb	r3, [r4]	@ zero_extendqisi2
 376 00ba 082B     		cmp	r3, #8
 377 00bc 0FD8     		bhi	.L59
 378 00be 0133     		adds	r3, r3, #1
 379 00c0 DBB2     		uxtb	r3, r3
 380              	.L45:
 381              		.loc 1 190 0
 382 00c2 0199     		ldr	r1, [sp, #4]
 383 00c4 3268     		ldr	r2, [r6]
 384              		.loc 1 188 0
 385 00c6 2370     		strb	r3, [r4]
 386              		.loc 1 190 0
 387 00c8 9142     		cmp	r1, r2
 388              		.loc 1 187 0
 389 00ca 4FF00003 		mov	r3, #0
 390 00ce 2B80     		strh	r3, [r5]	@ movhi
 391              		.loc 1 190 0
 392 00d0 32D1     		bne	.L57
 393 00d2 1E48     		ldr	r0, .L61+16
 394              		.loc 1 192 0
 395 00d4 03B0     		add	sp, sp, #12
 396              		.cfi_remember_state
 397              		.cfi_def_cfa_offset 20
 398              		@ sp needed
 399 00d6 BDE8F040 		pop	{r4, r5, r6, r7, lr}
ARM GAS  C:\Users\Marc\AppData\Local\Temp\cc1g9l0Y.s 			page 8


 400              		.cfi_restore 14
 401              		.cfi_restore 7
 402              		.cfi_restore 6
 403              		.cfi_restore 5
 404              		.cfi_restore 4
 405              		.cfi_def_cfa_offset 0
 406              		.loc 1 190 0
 407 00da FFF7FEBF 		b	sound_remote
 408              	.LVL22:
 409              	.L59:
 410              		.cfi_restore_state
 411              	.LBB47:
 412              	.LBB48:
 413              	.LBB49:
 414              	.LBB50:
 415              	.LBB51:
 416              	.LBB52:
 417              	.LBB53:
 418              		.file 2 "../lib/e-puck2_main-processor/ChibiOS//os/ext/CMSIS/include/core_cmFunc.h"
 419              		.loc 2 546 0
 420 00de 2023     		movs	r3, #32
 421              		.syntax unified
 422              	@ 546 "../lib/e-puck2_main-processor/ChibiOS//os/ext/CMSIS/include/core_cmFunc.h" 1
 423 00e0 83F31188 		MSR basepri, r3
 424              	@ 0 "" 2
 425              	.LVL23:
 426              		.thumb
 427              		.syntax unified
 428              	.LBE53:
 429              	.LBE52:
 430              	.LBE51:
 431              		.file 3 "../lib/e-puck2_main-processor/ChibiOS//os/rt/include/chsys.h"
 432              		.loc 3 349 0
 433 00e4 FFF7FEFF 		bl	_stats_start_measure_crit_thd
 434              	.LVL24:
 435              		.loc 3 350 0
 436 00e8 FFF7FEFF 		bl	_dbg_check_lock
 437              	.LVL25:
 438              	.LBE50:
 439              	.LBE49:
 440              	.LBB54:
 441              	.LBB55:
 442              		.file 4 "../lib/e-puck2_main-processor/ChibiOS//os/rt/include/chbsem.h"
 443              		.loc 4 268 0
 444 00ec FFF7FEFF 		bl	chDbgCheckClassI
 445              	.LVL26:
 446              		.loc 4 270 0
 447 00f0 1748     		ldr	r0, .L61+20
 448 00f2 8368     		ldr	r3, [r0, #8]
 449 00f4 002B     		cmp	r3, #0
 450 00f6 1ADD     		ble	.L60
 451              	.L46:
 452              	.LVL27:
 453              	.LBE55:
 454              	.LBE54:
 455              		.loc 4 286 0
 456 00f8 FFF7FEFF 		bl	chSchRescheduleS
ARM GAS  C:\Users\Marc\AppData\Local\Temp\cc1g9l0Y.s 			page 9


 457              	.LVL28:
 458              	.LBB57:
 459              	.LBB58:
 460              		.loc 3 360 0
 461 00fc FFF7FEFF 		bl	_dbg_check_unlock
 462              	.LVL29:
 463              		.loc 3 361 0
 464 0100 FFF7FEFF 		bl	_stats_stop_measure_crit_thd
 465              	.LVL30:
 466              		.loc 3 367 0
 467 0104 134B     		ldr	r3, .L61+24
 468 0106 1A68     		ldr	r2, [r3]
 469 0108 9A42     		cmp	r2, r3
 470 010a 07D0     		beq	.L47
 471 010c 9969     		ldr	r1, [r3, #24]
 472 010e 9368     		ldr	r3, [r2, #8]
 473 0110 8A68     		ldr	r2, [r1, #8]
 474 0112 9A42     		cmp	r2, r3
 475 0114 02D2     		bcs	.L47
 476 0116 1048     		ldr	r0, .L61+28
 477 0118 FFF7FEFF 		bl	chSysHalt
 478              	.LVL31:
 479              	.L47:
 480              	.LBB59:
 481              	.LBB60:
 482              	.LBB61:
 483              		.loc 2 546 0
 484 011c 0023     		movs	r3, #0
 485              		.syntax unified
 486              	@ 546 "../lib/e-puck2_main-processor/ChibiOS//os/ext/CMSIS/include/core_cmFunc.h" 1
 487 011e 83F31188 		MSR basepri, r3
 488              	@ 0 "" 2
 489              	.LVL32:
 490              		.thumb
 491              		.syntax unified
 492 0122 0123     		movs	r3, #1
 493 0124 CDE7     		b	.L45
 494              	.LVL33:
 495              	.L39:
 496              	.LBE61:
 497              	.LBE60:
 498              	.LBE59:
 499              	.LBE58:
 500              	.LBE57:
 501              	.LBE48:
 502              	.LBE47:
 503              		.loc 1 156 0
 504 0126 B3F5006F 		cmp	r3, #2048
 505 012a B2D3     		bcc	.L38
 506 012c B8E7     		b	.L40
 507              	.LVL34:
 508              	.L60:
 509              	.LBB64:
 510              	.LBB63:
 511              	.LBB62:
 512              	.LBB56:
 513              		.loc 4 271 0
ARM GAS  C:\Users\Marc\AppData\Local\Temp\cc1g9l0Y.s 			page 10


 514 012e FFF7FEFF 		bl	chSemSignalI
 515              	.LVL35:
 516 0132 E1E7     		b	.L46
 517              	.LVL36:
 518              	.L58:
 519 0134 2B80     		strh	r3, [r5]	@ movhi
 520 0136 ACE7     		b	.L38
 521              	.L57:
 522              	.LBE56:
 523              	.LBE62:
 524              	.LBE63:
 525              	.LBE64:
 526              		.loc 1 192 0
 527 0138 FFF7FEFF 		bl	__stack_chk_fail
 528              	.LVL37:
 529              	.L62:
 530              		.align	2
 531              	.L61:
 532 013c 00000000 		.word	__stack_chk_guard
 533 0140 00000000 		.word	.LANCHOR1
 534 0144 00000000 		.word	micLeft_cmplx_input
 535 0148 00000000 		.word	.LANCHOR4
 536 014c 00000000 		.word	micLeft_output
 537 0150 00000000 		.word	.LANCHOR2
 538 0154 00000000 		.word	ch
 539 0158 00000000 		.word	.LANCHOR3
 540              		.cfi_endproc
 541              	.LFE294:
 542              		.size	processAudioData, .-processAudioData
 543              		.section	.text.wait_send_to_computer,"ax",%progbits
 544              		.align	1
 545              		.p2align 4,,15
 546              		.global	wait_send_to_computer
 547              		.syntax unified
 548              		.thumb
 549              		.thumb_func
 550              		.fpu fpv4-sp-d16
 551              		.type	wait_send_to_computer, %function
 552              	wait_send_to_computer:
 553              	.LFB295:
 554              		.loc 1 194 0
 555              		.cfi_startproc
 556              		@ args = 0, pretend = 0, frame = 8
 557              		@ frame_needed = 0, uses_anonymous_args = 0
 558 0000 00B5     		push	{lr}
 559              		.cfi_def_cfa_offset 4
 560              		.cfi_offset 14, -4
 561 0002 084B     		ldr	r3, .L68
 562 0004 83B0     		sub	sp, sp, #12
 563              		.cfi_def_cfa_offset 16
 564              		.loc 1 194 0
 565 0006 1A68     		ldr	r2, [r3]
 566 0008 0192     		str	r2, [sp, #4]
 567              	.LVL38:
 568              	.LBB65:
 569              	.LBB66:
 570              		.loc 4 143 0
ARM GAS  C:\Users\Marc\AppData\Local\Temp\cc1g9l0Y.s 			page 11


 571 000a 019A     		ldr	r2, [sp, #4]
 572 000c 1B68     		ldr	r3, [r3]
 573 000e 9A42     		cmp	r2, r3
 574 0010 05D1     		bne	.L67
 575 0012 0548     		ldr	r0, .L68+4
 576              	.LBE66:
 577              	.LBE65:
 578              		.loc 1 196 0
 579 0014 03B0     		add	sp, sp, #12
 580              		.cfi_remember_state
 581              		.cfi_def_cfa_offset 4
 582              		@ sp needed
 583 0016 5DF804EB 		ldr	lr, [sp], #4
 584              		.cfi_restore 14
 585              		.cfi_def_cfa_offset 0
 586              	.LBB68:
 587              	.LBB67:
 588              		.loc 4 143 0
 589 001a FFF7FEBF 		b	chSemWait
 590              	.LVL39:
 591              	.L67:
 592              		.cfi_restore_state
 593 001e FFF7FEFF 		bl	__stack_chk_fail
 594              	.LVL40:
 595              	.L69:
 596 0022 00BF     		.align	2
 597              	.L68:
 598 0024 00000000 		.word	__stack_chk_guard
 599 0028 00000000 		.word	.LANCHOR2
 600              	.LBE67:
 601              	.LBE68:
 602              		.cfi_endproc
 603              	.LFE295:
 604              		.size	wait_send_to_computer, .-wait_send_to_computer
 605              		.section	.text.get_audio_buffer_ptr,"ax",%progbits
 606              		.align	1
 607              		.p2align 4,,15
 608              		.global	get_audio_buffer_ptr
 609              		.syntax unified
 610              		.thumb
 611              		.thumb_func
 612              		.fpu fpv4-sp-d16
 613              		.type	get_audio_buffer_ptr, %function
 614              	get_audio_buffer_ptr:
 615              	.LFB296:
 616              		.loc 1 198 0
 617              		.cfi_startproc
 618              		@ args = 0, pretend = 0, frame = 8
 619              		@ frame_needed = 0, uses_anonymous_args = 0
 620              	.LVL41:
 621 0000 00B5     		push	{lr}
 622              		.cfi_def_cfa_offset 4
 623              		.cfi_offset 14, -4
 624 0002 164B     		ldr	r3, .L83
 625 0004 83B0     		sub	sp, sp, #12
 626              		.cfi_def_cfa_offset 16
 627              		.loc 1 198 0
ARM GAS  C:\Users\Marc\AppData\Local\Temp\cc1g9l0Y.s 			page 12


 628 0006 1A68     		ldr	r2, [r3]
 629 0008 0192     		str	r2, [sp, #4]
 630              		.loc 1 199 0
 631 000a 88B1     		cbz	r0, .L73
 632              		.loc 1 202 0
 633 000c 0128     		cmp	r0, #1
 634 000e 17D0     		beq	.L74
 635              		.loc 1 205 0
 636 0010 0228     		cmp	r0, #2
 637 0012 19D0     		beq	.L75
 638              		.loc 1 208 0
 639 0014 0328     		cmp	r0, #3
 640 0016 15D0     		beq	.L76
 641              		.loc 1 211 0
 642 0018 0428     		cmp	r0, #4
 643 001a 17D0     		beq	.L77
 644              		.loc 1 214 0
 645 001c 0528     		cmp	r0, #5
 646 001e 17D0     		beq	.L78
 647              		.loc 1 217 0
 648 0020 0628     		cmp	r0, #6
 649 0022 17D0     		beq	.L79
 650              		.loc 1 224 0
 651 0024 0E4A     		ldr	r2, .L83+4
 652              		.loc 1 220 0
 653 0026 0728     		cmp	r0, #7
 654              		.loc 1 224 0
 655 0028 0CBF     		ite	eq
 656 002a 1046     		moveq	r0, r2
 657              	.LVL42:
 658 002c 0020     		movne	r0, #0
 659 002e 00E0     		b	.L70
 660              	.LVL43:
 661              	.L73:
 662              		.loc 1 200 0
 663 0030 0C48     		ldr	r0, .L83+8
 664              	.LVL44:
 665              	.L70:
 666              		.loc 1 226 0
 667 0032 019A     		ldr	r2, [sp, #4]
 668 0034 1B68     		ldr	r3, [r3]
 669 0036 9A42     		cmp	r2, r3
 670 0038 0ED1     		bne	.L82
 671 003a 03B0     		add	sp, sp, #12
 672              		.cfi_remember_state
 673              		.cfi_def_cfa_offset 4
 674              		@ sp needed
 675 003c 5DF804FB 		ldr	pc, [sp], #4
 676              	.LVL45:
 677              	.L74:
 678              		.cfi_restore_state
 679              		.loc 1 203 0
 680 0040 0948     		ldr	r0, .L83+12
 681              	.LVL46:
 682 0042 F6E7     		b	.L70
 683              	.LVL47:
 684              	.L76:
ARM GAS  C:\Users\Marc\AppData\Local\Temp\cc1g9l0Y.s 			page 13


 685              		.loc 1 209 0
 686 0044 0948     		ldr	r0, .L83+16
 687              	.LVL48:
 688 0046 F4E7     		b	.L70
 689              	.LVL49:
 690              	.L75:
 691              		.loc 1 206 0
 692 0048 0948     		ldr	r0, .L83+20
 693              	.LVL50:
 694 004a F2E7     		b	.L70
 695              	.LVL51:
 696              	.L77:
 697              		.loc 1 212 0
 698 004c 0948     		ldr	r0, .L83+24
 699              	.LVL52:
 700 004e F0E7     		b	.L70
 701              	.LVL53:
 702              	.L78:
 703              		.loc 1 215 0
 704 0050 0948     		ldr	r0, .L83+28
 705              	.LVL54:
 706 0052 EEE7     		b	.L70
 707              	.LVL55:
 708              	.L79:
 709              		.loc 1 218 0
 710 0054 0948     		ldr	r0, .L83+32
 711              	.LVL56:
 712 0056 ECE7     		b	.L70
 713              	.L82:
 714              		.loc 1 226 0
 715 0058 FFF7FEFF 		bl	__stack_chk_fail
 716              	.LVL57:
 717              	.L84:
 718              		.align	2
 719              	.L83:
 720 005c 00000000 		.word	__stack_chk_guard
 721 0060 00000000 		.word	micBack_output
 722 0064 00000000 		.word	micLeft_cmplx_input
 723 0068 00000000 		.word	micRight_cmplx_input
 724 006c 00000000 		.word	micBack_cmplx_input
 725 0070 00000000 		.word	micFront_cmplx_input
 726 0074 00000000 		.word	micLeft_output
 727 0078 00000000 		.word	micRight_output
 728 007c 00000000 		.word	micFront_output
 729              		.cfi_endproc
 730              	.LFE296:
 731              		.size	get_audio_buffer_ptr, .-get_audio_buffer_ptr
 732              		.section	.text.get_letter_state,"ax",%progbits
 733              		.align	1
 734              		.p2align 4,,15
 735              		.global	get_letter_state
 736              		.syntax unified
 737              		.thumb
 738              		.thumb_func
 739              		.fpu fpv4-sp-d16
 740              		.type	get_letter_state, %function
 741              	get_letter_state:
ARM GAS  C:\Users\Marc\AppData\Local\Temp\cc1g9l0Y.s 			page 14


 742              	.LFB297:
 743              		.loc 1 228 0
 744              		.cfi_startproc
 745              		@ args = 0, pretend = 0, frame = 8
 746              		@ frame_needed = 0, uses_anonymous_args = 0
 747 0000 10B5     		push	{r4, lr}
 748              		.cfi_def_cfa_offset 8
 749              		.cfi_offset 4, -8
 750              		.cfi_offset 14, -4
 751 0002 084A     		ldr	r2, .L89
 752              		.loc 1 229 0
 753 0004 084B     		ldr	r3, .L89+4
 754              		.loc 1 228 0
 755 0006 1168     		ldr	r1, [r2]
 756              		.loc 1 229 0
 757 0008 1878     		ldrb	r0, [r3]	@ zero_extendqisi2
 758              	.LVL58:
 759              		.loc 1 228 0
 760 000a 82B0     		sub	sp, sp, #8
 761              		.cfi_def_cfa_offset 16
 762              		.loc 1 230 0
 763 000c 0024     		movs	r4, #0
 764              		.loc 1 228 0
 765 000e 0191     		str	r1, [sp, #4]
 766              		.loc 1 232 0
 767 0010 0199     		ldr	r1, [sp, #4]
 768 0012 1268     		ldr	r2, [r2]
 769              		.loc 1 230 0
 770 0014 1C70     		strb	r4, [r3]
 771              		.loc 1 232 0
 772 0016 9142     		cmp	r1, r2
 773 0018 01D1     		bne	.L88
 774 001a 02B0     		add	sp, sp, #8
 775              		.cfi_remember_state
 776              		.cfi_def_cfa_offset 8
 777              		@ sp needed
 778 001c 10BD     		pop	{r4, pc}
 779              	.L88:
 780              		.cfi_restore_state
 781 001e FFF7FEFF 		bl	__stack_chk_fail
 782              	.LVL59:
 783              	.L90:
 784 0022 00BF     		.align	2
 785              	.L89:
 786 0024 00000000 		.word	__stack_chk_guard
 787 0028 00000000 		.word	.LANCHOR0
 788              		.cfi_endproc
 789              	.LFE297:
 790              		.size	get_letter_state, .-get_letter_state
 791              		.section	.bss.letter_state_new,"aw",%nobits
 792              		.set	.LANCHOR0,. + 0
 793              		.type	letter_state_new, %object
 794              		.size	letter_state_new, 1
 795              	letter_state_new:
 796 0000 00       		.space	1
 797              		.section	.bss.micBack_cmplx_input,"aw",%nobits
 798              		.align	2
ARM GAS  C:\Users\Marc\AppData\Local\Temp\cc1g9l0Y.s 			page 15


 799              		.type	micBack_cmplx_input, %object
 800              		.size	micBack_cmplx_input, 8192
 801              	micBack_cmplx_input:
 802 0000 00000000 		.space	8192
 802      00000000 
 802      00000000 
 802      00000000 
 802      00000000 
 803              		.section	.bss.micBack_output,"aw",%nobits
 804              		.align	2
 805              		.type	micBack_output, %object
 806              		.size	micBack_output, 4096
 807              	micBack_output:
 808 0000 00000000 		.space	4096
 808      00000000 
 808      00000000 
 808      00000000 
 808      00000000 
 809              		.section	.bss.micFront_cmplx_input,"aw",%nobits
 810              		.align	2
 811              		.type	micFront_cmplx_input, %object
 812              		.size	micFront_cmplx_input, 8192
 813              	micFront_cmplx_input:
 814 0000 00000000 		.space	8192
 814      00000000 
 814      00000000 
 814      00000000 
 814      00000000 
 815              		.section	.bss.micFront_output,"aw",%nobits
 816              		.align	2
 817              		.type	micFront_output, %object
 818              		.size	micFront_output, 4096
 819              	micFront_output:
 820 0000 00000000 		.space	4096
 820      00000000 
 820      00000000 
 820      00000000 
 820      00000000 
 821              		.section	.bss.micLeft_cmplx_input,"aw",%nobits
 822              		.align	2
 823              		.type	micLeft_cmplx_input, %object
 824              		.size	micLeft_cmplx_input, 8192
 825              	micLeft_cmplx_input:
 826 0000 00000000 		.space	8192
 826      00000000 
 826      00000000 
 826      00000000 
 826      00000000 
 827              		.section	.bss.micLeft_output,"aw",%nobits
 828              		.align	2
 829              		.type	micLeft_output, %object
 830              		.size	micLeft_output, 4096
 831              	micLeft_output:
 832 0000 00000000 		.space	4096
 832      00000000 
 832      00000000 
 832      00000000 
ARM GAS  C:\Users\Marc\AppData\Local\Temp\cc1g9l0Y.s 			page 16


 832      00000000 
 833              		.section	.bss.micRight_cmplx_input,"aw",%nobits
 834              		.align	2
 835              		.type	micRight_cmplx_input, %object
 836              		.size	micRight_cmplx_input, 8192
 837              	micRight_cmplx_input:
 838 0000 00000000 		.space	8192
 838      00000000 
 838      00000000 
 838      00000000 
 838      00000000 
 839              		.section	.bss.micRight_output,"aw",%nobits
 840              		.align	2
 841              		.type	micRight_output, %object
 842              		.size	micRight_output, 4096
 843              	micRight_output:
 844 0000 00000000 		.space	4096
 844      00000000 
 844      00000000 
 844      00000000 
 844      00000000 
 845              		.section	.bss.mustSend.14953,"aw",%nobits
 846              		.set	.LANCHOR4,. + 0
 847              		.type	mustSend.14953, %object
 848              		.size	mustSend.14953, 1
 849              	mustSend.14953:
 850 0000 00       		.space	1
 851              		.section	.bss.nb_samples.14952,"aw",%nobits
 852              		.align	1
 853              		.set	.LANCHOR1,. + 0
 854              		.type	nb_samples.14952, %object
 855              		.size	nb_samples.14952, 2
 856              	nb_samples.14952:
 857 0000 0000     		.space	2
 858              		.section	.data.sendToComputer_sem,"aw",%progbits
 859              		.align	2
 860              		.set	.LANCHOR2,. + 0
 861              		.type	sendToComputer_sem, %object
 862              		.size	sendToComputer_sem, 12
 863              	sendToComputer_sem:
 864 0000 00000000 		.word	sendToComputer_sem
 865 0004 00000000 		.word	sendToComputer_sem
 866 0008 00000000 		.word	0
 867              		.section	.rodata.__func__.7153,"a",%progbits
 868              		.align	2
 869              		.set	.LANCHOR3,. + 0
 870              		.type	__func__.7153, %object
 871              		.size	__func__.7153, 12
 872              	__func__.7153:
 873 0000 63685379 		.ascii	"chSysUnlock\000"
 873      73556E6C 
 873      6F636B00 
 874              		.text
 875              	.Letext0:
 876              		.file 5 "c:\\users\\marc\\documents\\eclipse_e-puck2\\tools\\gcc-arm-none-eabi-7-2017-q4-major-win
 877              		.file 6 "c:\\users\\marc\\documents\\eclipse_e-puck2\\tools\\gcc-arm-none-eabi-7-2017-q4-major-win
 878              		.file 7 "c:\\users\\marc\\documents\\eclipse_e-puck2\\tools\\gcc-arm-none-eabi-7-2017-q4-major-win
ARM GAS  C:\Users\Marc\AppData\Local\Temp\cc1g9l0Y.s 			page 17


 879              		.file 8 "../lib/e-puck2_main-processor/ChibiOS//os/rt/ports/ARMCMx/compilers/GCC/chtypes.h"
 880              		.file 9 "../lib/e-puck2_main-processor/ChibiOS//os/rt/include/chsystypes.h"
 881              		.file 10 "../lib/e-puck2_main-processor/ChibiOS//os/rt/include/chschd.h"
 882              		.file 11 "../lib/e-puck2_main-processor/ChibiOS//os/ext/CMSIS/include/core_cm4.h"
 883              		.file 12 "../lib/e-puck2_main-processor/ChibiOS//os/ext/CMSIS/ST/system_stm32f4xx.h"
 884              		.file 13 "../lib/e-puck2_main-processor/ChibiOS//os/ext/CMSIS/ST/stm32f407xx.h"
 885              		.file 14 "../lib/e-puck2_main-processor/ChibiOS//os/rt/ports/ARMCMx/chcore.h"
 886              		.file 15 "../lib/e-puck2_main-processor/ChibiOS//os/rt/ports/ARMCMx/chcore_v7m.h"
 887              		.file 16 "../lib/e-puck2_main-processor/ChibiOS//os/rt/include/chdebug.h"
 888              		.file 17 "../lib/e-puck2_main-processor/ChibiOS//os/rt/include/chtm.h"
 889              		.file 18 "../lib/e-puck2_main-processor/ChibiOS//os/rt/include/chstats.h"
 890              		.file 19 "../lib/e-puck2_main-processor/ChibiOS//os/rt/include/chsem.h"
 891              		.file 20 "../lib/e-puck2_main-processor/ChibiOS//os/rt/include/chmtx.h"
 892              		.file 21 "../lib/e-puck2_main-processor/ChibiOS//os/rt/include/chregistry.h"
 893              		.file 22 "../lib/e-puck2_main-processor/ChibiOS//os/rt/include/chevents.h"
 894              		.file 23 "../lib/e-puck2_main-processor/ChibiOS//os/rt/include/chqueues.h"
 895              		.file 24 "../lib/e-puck2_main-processor/ChibiOS//os/hal/ports/STM32/STM32F4xx/stm32_dma.h"
 896              		.file 25 "../lib/e-puck2_main-processor/ChibiOS//os/hal/include/hal_ioblock.h"
 897              		.file 26 "../lib/e-puck2_main-processor/ChibiOS//os/hal/ports/STM32/LLD/GPIOv2/pal_lld.h"
 898              		.file 27 "../lib/e-puck2_main-processor/ChibiOS//os/hal/include/adc.h"
 899              		.file 28 "../lib/e-puck2_main-processor/ChibiOS//os/hal/ports/STM32/STM32F4xx/adc_lld.h"
 900              		.file 29 "../lib/e-puck2_main-processor/ChibiOS//os/hal/include/can.h"
 901              		.file 30 "../lib/e-puck2_main-processor/ChibiOS//os/hal/ports/STM32/LLD/can_lld.h"
 902              		.file 31 "../lib/e-puck2_main-processor/ChibiOS//os/hal/include/dac.h"
 903              		.file 32 "../lib/e-puck2_main-processor/ChibiOS//os/hal/ports/STM32/LLD/DACv1/dac_lld.h"
 904              		.file 33 "../lib/e-puck2_main-processor/ChibiOS//os/hal/include/ext.h"
 905              		.file 34 "../lib/e-puck2_main-processor/ChibiOS//os/hal/ports/STM32/LLD/ext_lld.h"
 906              		.file 35 "../lib/e-puck2_main-processor/ChibiOS//os/hal/include/gpt.h"
 907              		.file 36 "../lib/e-puck2_main-processor/ChibiOS//os/hal/ports/STM32/LLD/TIMv1/gpt_lld.h"
 908              		.file 37 "../lib/e-puck2_main-processor/ChibiOS//os/hal/ports/STM32/LLD/TIMv1/stm32_tim.h"
 909              		.file 38 "../lib/e-puck2_main-processor/ChibiOS//os/hal/include/i2c.h"
 910              		.file 39 "../lib/e-puck2_main-processor/ChibiOS//os/hal/ports/STM32/LLD/I2Cv1/i2c_lld.h"
 911              		.file 40 "../lib/e-puck2_main-processor/ChibiOS//os/hal/include/i2s.h"
 912              		.file 41 "../lib/e-puck2_main-processor/ChibiOS//os/hal/ports/STM32/LLD/SPIv1/i2s_lld.h"
 913              		.file 42 "../lib/e-puck2_main-processor/ChibiOS//os/hal/include/pwm.h"
 914              		.file 43 "../lib/e-puck2_main-processor/ChibiOS//os/hal/ports/STM32/LLD/TIMv1/pwm_lld.h"
 915              		.file 44 "../lib/e-puck2_main-processor/ChibiOS//os/hal/include/serial.h"
 916              		.file 45 "../lib/e-puck2_main-processor/ChibiOS//os/hal/ports/STM32/LLD/USARTv1/serial_lld.h"
 917              		.file 46 "../lib/e-puck2_main-processor/ChibiOS//os/hal/include/sdc.h"
 918              		.file 47 "../lib/e-puck2_main-processor/ChibiOS//os/hal/ports/STM32/LLD/sdc_lld.h"
 919              		.file 48 "../lib/e-puck2_main-processor/ChibiOS//os/hal/include/spi.h"
 920              		.file 49 "../lib/e-puck2_main-processor/ChibiOS//os/hal/ports/STM32/LLD/SPIv1/spi_lld.h"
 921              		.file 50 "../lib/e-puck2_main-processor/ChibiOS//os/hal/include/usb.h"
 922              		.file 51 "../lib/e-puck2_main-processor/ChibiOS//os/hal/ports/STM32/LLD/OTGv1/usb_lld.h"
 923              		.file 52 "../lib/e-puck2_main-processor/ChibiOS//os/hal/ports/STM32/LLD/OTGv1/stm32_otg.h"
 924              		.file 53 "../lib/e-puck2_main-processor/ChibiOS//os/hal/include/serial_usb.h"
 925              		.file 54 "../lib/e-puck2_main-processor/ChibiOS_ext/os/hal/include/../ports/STM32/STM32F4xx/dcmi_l
 926              		.file 55 "c:\\users\\marc\\documents\\eclipse_e-puck2\\tools\\gcc-arm-none-eabi-7-2017-q4-major-wi
 927              		.file 56 "c:\\users\\marc\\documents\\eclipse_e-puck2\\tools\\gcc-arm-none-eabi-7-2017-q4-major-wi
 928              		.file 57 "c:\\users\\marc\\documents\\eclipse_e-puck2\\tools\\gcc-arm-none-eabi-7-2017-q4-major-wi
 929              		.file 58 "../lib/e-puck2_main-processor/src/msgbus/messagebus.h"
 930              		.file 59 "c:\\users\\marc\\documents\\eclipse_e-puck2\\tools\\gcc-arm-none-eabi-7-2017-q4-major-wi
 931              		.file 60 "c:\\users\\marc\\documents\\eclipse_e-puck2\\tools\\gcc-arm-none-eabi-7-2017-q4-major-wi
 932              		.file 61 "../lib/e-puck2_main-processor/src/parameter/parameter.h"
 933              		.file 62 "./main.h"
 934              		.file 63 "../lib/e-puck2_main-processor/src/usbcfg.h"
 935              		.file 64 "./game_management.h"
ARM GAS  C:\Users\Marc\AppData\Local\Temp\cc1g9l0Y.s 			page 18


 936              		.file 65 "./audio_processing.h"
 937              		.file 66 "c:\\users\\marc\\documents\\eclipse_e-puck2\\tools\\gcc-arm-none-eabi-7-2017-q4-major-wi
 938              		.file 67 "./fft.h"
 939              		.file 68 "../lib/e-puck2_main-processor/ChibiOS//os/ext/CMSIS/include/arm_math.h"