ARM GAS  C:\Users\Marc\AppData\Local\Temp\ccYDcUlt.s 			page 1


   1              		.cpu cortex-m4
   2              		.eabi_attribute 27, 1
   3              		.eabi_attribute 28, 1
   4              		.eabi_attribute 20, 1
   5              		.eabi_attribute 21, 1
   6              		.eabi_attribute 23, 3
   7              		.eabi_attribute 24, 1
   8              		.eabi_attribute 25, 1
   9              		.eabi_attribute 26, 1
  10              		.eabi_attribute 30, 2
  11              		.eabi_attribute 34, 1
  12              		.eabi_attribute 18, 4
  13              		.file	"camera_processing.c"
  14              		.text
  15              	.Ltext0:
  16              		.cfi_sections	.debug_frame
  17              		.section	.text.CaptureImage,"ax",%progbits
  18              		.align	1
  19              		.p2align 4,,15
  20              		.syntax unified
  21              		.thumb
  22              		.thumb_func
  23              		.fpu fpv4-sp-d16
  24              		.type	CaptureImage, %function
  25              	CaptureImage:
  26              	.LFB258:
  27              		.file 1 "camera_processing.c"
  28              		.loc 1 107 0
  29              		.cfi_startproc
  30              		@ Volatile: function does not return.
  31              		@ args = 0, pretend = 0, frame = 8
  32              		@ frame_needed = 0, uses_anonymous_args = 0
  33              	.LVL0:
  34 0000 80B5     		push	{r7, lr}
  35              		.cfi_def_cfa_offset 8
  36              		.cfi_offset 7, -8
  37              		.cfi_offset 14, -4
  38              	.LBB67:
  39              	.LBB68:
  40              		.file 2 "../lib/e-puck2_main-processor/ChibiOS//os/rt/include/chregistry.h"
  41              		.loc 2 135 0
  42 0002 234C     		ldr	r4, .L8
  43              	.LBE68:
  44              	.LBE67:
  45              		.loc 1 107 0
  46 0004 234A     		ldr	r2, .L8+4
  47              	.LBB71:
  48              	.LBB69:
  49              		.loc 2 135 0
  50 0006 A369     		ldr	r3, [r4, #24]
  51 0008 2349     		ldr	r1, .L8+8
  52              	.LBE69:
  53              	.LBE71:
  54              		.loc 1 107 0
  55 000a 1668     		ldr	r6, [r2]
  56              	.LBB72:
  57              	.LBB70:
ARM GAS  C:\Users\Marc\AppData\Local\Temp\ccYDcUlt.s 			page 2


  58              		.loc 2 135 0
  59 000c 9961     		str	r1, [r3, #24]
  60              	.LBE70:
  61              	.LBE72:
  62              		.loc 1 107 0
  63 000e 86B0     		sub	sp, sp, #24
  64              		.cfi_def_cfa_offset 32
  65              		.loc 1 113 0
  66 0010 0223     		movs	r3, #2
  67 0012 2025     		movs	r5, #32
  68 0014 0A22     		movs	r2, #10
  69 0016 0021     		movs	r1, #0
  70 0018 0093     		str	r3, [sp]
  71              		.loc 1 107 0
  72 001a 0596     		str	r6, [sp, #20]
  73              		.loc 1 113 0
  74 001c 4FF42073 		mov	r3, #640
  75 0020 CDE90155 		strd	r5, r5, [sp, #4]
  76 0024 3020     		movs	r0, #48
  77              	.LVL1:
  78 0026 1D4E     		ldr	r6, .L8+12
  79              	.LBB73:
  80              	.LBB74:
  81              	.LBB75:
  82              	.LBB76:
  83              		.file 3 "../lib/e-puck2_main-processor/ChibiOS//os/rt/include/chsys.h"
  84              		.loc 3 367 0
  85 0028 1D4F     		ldr	r7, .L8+16
  86              	.LBE76:
  87              	.LBE75:
  88              	.LBE74:
  89              	.LBE73:
  90              		.loc 1 113 0
  91 002a FFF7FEFF 		bl	po8030_advanced_config
  92              	.LVL2:
  93              		.loc 1 114 0
  94 002e FFF7FEFF 		bl	dcmi_enable_double_buffering
  95              	.LVL3:
  96              		.loc 1 115 0
  97 0032 0020     		movs	r0, #0
  98 0034 FFF7FEFF 		bl	dcmi_set_capture_mode
  99              	.LVL4:
 100              	.LBB94:
 101              	.LBB91:
 102              	.LBB81:
 103              	.LBB82:
 104              		.file 4 "../lib/e-puck2_main-processor/ChibiOS//os/rt/include/chbsem.h"
 105              		.loc 4 271 0
 106 0038 B046     		mov	r8, r6
 107              	.LBE82:
 108              	.LBE81:
 109              	.LBE91:
 110              	.LBE94:
 111              		.loc 1 116 0
 112 003a FFF7FEFF 		bl	dcmi_prepare
 113              	.LVL5:
 114 003e 13E0     		b	.L4
ARM GAS  C:\Users\Marc\AppData\Local\Temp\ccYDcUlt.s 			page 3


 115              	.LVL6:
 116              	.L2:
 117              	.LBB95:
 118              	.LBB92:
 119              		.loc 4 286 0
 120 0040 FFF7FEFF 		bl	chSchRescheduleS
 121              	.LVL7:
 122              	.LBB84:
 123              	.LBB80:
 124              		.loc 3 360 0
 125 0044 FFF7FEFF 		bl	_dbg_check_unlock
 126              	.LVL8:
 127              		.loc 3 361 0
 128 0048 FFF7FEFF 		bl	_stats_stop_measure_crit_thd
 129              	.LVL9:
 130              		.loc 3 367 0
 131 004c 2368     		ldr	r3, [r4]
 132 004e A342     		cmp	r3, r4
 133 0050 07D0     		beq	.L3
 134 0052 A269     		ldr	r2, [r4, #24]
 135 0054 9B68     		ldr	r3, [r3, #8]
 136 0056 9268     		ldr	r2, [r2, #8]
 137 0058 9A42     		cmp	r2, r3
 138 005a 02D2     		bcs	.L3
 139 005c 3846     		mov	r0, r7
 140 005e FFF7FEFF 		bl	chSysHalt
 141              	.LVL10:
 142              	.L3:
 143              	.LBB77:
 144              	.LBB78:
 145              	.LBB79:
 146              		.file 5 "../lib/e-puck2_main-processor/ChibiOS//os/ext/CMSIS/include/core_cmFunc.h"
 147              		.loc 5 546 0
 148 0062 0023     		movs	r3, #0
 149              		.syntax unified
 150              	@ 546 "../lib/e-puck2_main-processor/ChibiOS//os/ext/CMSIS/include/core_cmFunc.h" 1
 151 0064 83F31188 		MSR basepri, r3
 152              	@ 0 "" 2
 153              	.LVL11:
 154              		.thumb
 155              		.syntax unified
 156              	.L4:
 157              	.LBE79:
 158              	.LBE78:
 159              	.LBE77:
 160              	.LBE80:
 161              	.LBE84:
 162              	.LBE92:
 163              	.LBE95:
 164              		.loc 1 120 0 discriminator 1
 165 0068 FFF7FEFF 		bl	dcmi_capture_start
 166              	.LVL12:
 167              		.loc 1 122 0 discriminator 1
 168 006c FFF7FEFF 		bl	wait_image_ready
 169              	.LVL13:
 170              	.LBB96:
 171              	.LBB93:
ARM GAS  C:\Users\Marc\AppData\Local\Temp\ccYDcUlt.s 			page 4


 172              	.LBB85:
 173              	.LBB86:
 174              	.LBB87:
 175              	.LBB88:
 176              	.LBB89:
 177              		.loc 5 546 0 discriminator 1
 178              		.syntax unified
 179              	@ 546 "../lib/e-puck2_main-processor/ChibiOS//os/ext/CMSIS/include/core_cmFunc.h" 1
 180 0070 85F31188 		MSR basepri, r5
 181              	@ 0 "" 2
 182              	.LVL14:
 183              		.thumb
 184              		.syntax unified
 185              	.LBE89:
 186              	.LBE88:
 187              	.LBE87:
 188              		.loc 3 349 0 discriminator 1
 189 0074 FFF7FEFF 		bl	_stats_start_measure_crit_thd
 190              	.LVL15:
 191              		.loc 3 350 0 discriminator 1
 192 0078 FFF7FEFF 		bl	_dbg_check_lock
 193              	.LVL16:
 194              	.LBE86:
 195              	.LBE85:
 196              	.LBB90:
 197              	.LBB83:
 198              		.loc 4 268 0 discriminator 1
 199 007c FFF7FEFF 		bl	chDbgCheckClassI
 200              	.LVL17:
 201              		.loc 4 270 0 discriminator 1
 202 0080 B368     		ldr	r3, [r6, #8]
 203 0082 002B     		cmp	r3, #0
 204 0084 DCDC     		bgt	.L2
 205              		.loc 4 271 0
 206 0086 4046     		mov	r0, r8
 207 0088 FFF7FEFF 		bl	chSemSignalI
 208              	.LVL18:
 209 008c D8E7     		b	.L2
 210              	.L9:
 211 008e 00BF     		.align	2
 212              	.L8:
 213 0090 00000000 		.word	ch
 214 0094 00000000 		.word	__stack_chk_guard
 215 0098 00000000 		.word	.LANCHOR0
 216 009c 00000000 		.word	.LANCHOR1
 217 00a0 00000000 		.word	.LANCHOR2
 218              	.LBE83:
 219              	.LBE90:
 220              	.LBE93:
 221              	.LBE96:
 222              		.cfi_endproc
 223              	.LFE258:
 224              		.size	CaptureImage, .-CaptureImage
 225              		.section	.text.extract_line_width,"ax",%progbits
 226              		.align	1
 227              		.p2align 4,,15
 228              		.global	extract_line_width
ARM GAS  C:\Users\Marc\AppData\Local\Temp\ccYDcUlt.s 			page 5


 229              		.syntax unified
 230              		.thumb
 231              		.thumb_func
 232              		.fpu fpv4-sp-d16
 233              		.type	extract_line_width, %function
 234              	extract_line_width:
 235              	.LFB257:
 236              		.loc 1 26 0
 237              		.cfi_startproc
 238              		@ args = 0, pretend = 0, frame = 8
 239              		@ frame_needed = 0, uses_anonymous_args = 0
 240              	.LVL19:
 241 0000 F0B5     		push	{r4, r5, r6, r7, lr}
 242              		.cfi_def_cfa_offset 20
 243              		.cfi_offset 4, -20
 244              		.cfi_offset 5, -16
 245              		.cfi_offset 6, -12
 246              		.cfi_offset 7, -8
 247              		.cfi_offset 14, -4
 248 0002 344C     		ldr	r4, .L39
 249 0004 83B0     		sub	sp, sp, #12
 250              		.cfi_def_cfa_offset 32
 251              		.loc 1 26 0
 252 0006 2368     		ldr	r3, [r4]
 253 0008 0193     		str	r3, [sp, #4]
 254              	.LVL20:
 255 000a 00F27F25 		addw	r5, r0, #639
 256 000e 431E     		subs	r3, r0, #1
 257              		.loc 1 30 0
 258 0010 0022     		movs	r2, #0
 259              	.LVL21:
 260              	.L11:
 261              	.LBB97:
 262              		.loc 1 36 0 discriminator 3
 263 0012 13F8011F 		ldrb	r1, [r3, #1]!	@ zero_extendqisi2
 264              		.loc 1 35 0 discriminator 3
 265 0016 9D42     		cmp	r5, r3
 266              		.loc 1 36 0 discriminator 3
 267 0018 0A44     		add	r2, r2, r1
 268              	.LVL22:
 269              		.loc 1 35 0 discriminator 3
 270 001a FAD1     		bne	.L11
 271              	.LBE97:
 272              		.loc 1 38 0
 273 001c 2E4B     		ldr	r3, .L39+4
 274 001e 0578     		ldrb	r5, [r0]	@ zero_extendqisi2
 275 0020 A3FB0232 		umull	r3, r2, r3, r2
 276              	.LVL23:
 277 0024 520A     		lsrs	r2, r2, #9
 278              	.LVL24:
 279              		.loc 1 28 0
 280 0026 0021     		movs	r1, #0
 281              		.loc 1 43 0
 282 0028 40F27A26 		movw	r6, #634
 283              	.LVL25:
 284              	.L12:
 285 002c 4B1C     		adds	r3, r1, #1
ARM GAS  C:\Users\Marc\AppData\Local\Temp\ccYDcUlt.s 			page 6


 286              		.loc 1 47 0
 287 002e 9542     		cmp	r5, r2
 288 0030 9BB2     		uxth	r3, r3
 289 0032 1FD9     		bls	.L14
 290              	.L37:
 291              		.loc 1 47 0 is_stmt 0 discriminator 1
 292 0034 4518     		adds	r5, r0, r1
 293 0036 6D79     		ldrb	r5, [r5, #5]	@ zero_extendqisi2
 294 0038 9542     		cmp	r5, r2
 295 003a 1BD2     		bcs	.L14
 296              	.LVL26:
 297              		.loc 1 55 0 is_stmt 1
 298 003c B342     		cmp	r3, r6
 299 003e 25D8     		bhi	.L13
 300              		.loc 1 55 0 is_stmt 0 discriminator 1
 301 0040 21B3     		cbz	r1, .L13
 302 0042 03F1FF3C 		add	ip, r3, #-1
 303 0046 8444     		add	ip, ip, r0
 304              	.LVL27:
 305              	.L22:
 306              		.loc 1 61 0 is_stmt 1
 307 0048 1CF8015F 		ldrb	r5, [ip, #1]!	@ zero_extendqisi2
 308 004c 9542     		cmp	r5, r2
 309 004e 9FB2     		uxth	r7, r3
 310 0050 15D9     		bls	.L17
 311              		.loc 1 61 0 is_stmt 0 discriminator 1
 312 0052 1CF805EC 		ldrb	lr, [ip, #-5]	@ zero_extendqisi2
 313 0056 9645     		cmp	lr, r2
 314 0058 11D2     		bcs	.L17
 315              	.LVL28:
 316              		.loc 1 80 0 is_stmt 1
 317 005a A7EB010C 		sub	ip, r7, r1
 318 005e BCF1270F 		cmp	ip, #39
 319 0062 3B46     		mov	r3, r7
 320 0064 2ADC     		bgt	.L36
 321              	.LVL29:
 322              		.loc 1 43 0
 323 0066 B742     		cmp	r7, r6
 324 0068 10D8     		bhi	.L13
 325 006a 3946     		mov	r1, r7
 326 006c 4B1C     		adds	r3, r1, #1
 327              		.loc 1 47 0
 328 006e 9542     		cmp	r5, r2
 329 0070 9BB2     		uxth	r3, r3
 330 0072 DFD8     		bhi	.L37
 331              	.LVL30:
 332              	.L14:
 333              		.loc 1 43 0 discriminator 1
 334 0074 B342     		cmp	r3, r6
 335 0076 09D8     		bhi	.L13
 336 0078 C55C     		ldrb	r5, [r0, r3]	@ zero_extendqisi2
 337              	.LVL31:
 338              		.loc 1 43 0 is_stmt 0
 339 007a 1946     		mov	r1, r3
 340 007c D6E7     		b	.L12
 341              	.LVL32:
 342              	.L17:
ARM GAS  C:\Users\Marc\AppData\Local\Temp\ccYDcUlt.s 			page 7


 343 007e 0137     		adds	r7, r7, #1
 344 0080 BFB2     		uxth	r7, r7
 345              	.LVL33:
 346              		.loc 1 59 0 is_stmt 1
 347 0082 B7F5207F 		cmp	r7, #640
 348 0086 03F10103 		add	r3, r3, #1
 349 008a DDD1     		bne	.L22
 350              	.LVL34:
 351              	.L13:
 352              		.loc 1 92 0
 353 008c 134B     		ldr	r3, .L39+8
 354 008e 1888     		ldrh	r0, [r3]
 355              	.LVL35:
 356              	.L25:
 357              		.loc 1 99 0
 358 0090 DFED136A 		vldr.32	s13, .L39+12
 359              		.loc 1 104 0
 360 0094 019A     		ldr	r2, [sp, #4]
 361 0096 2368     		ldr	r3, [r4]
 362              		.loc 1 99 0
 363 0098 07EE900A 		vmov	s15, r0	@ int
 364 009c F8EEE77A 		vcvt.f32.s32	s15, s15
 365 00a0 86EEA77A 		vdiv.f32	s14, s13, s15
 366 00a4 F3EE097A 		vmov.f32	s15, #2.5e+1
 367              		.loc 1 100 0
 368 00a8 B4EE677A 		vcmp.f32	s14, s15
 369 00ac F1EE10FA 		vmrs	APSR_nzcv, FPSCR
 370              		.loc 1 104 0
 371 00b0 C8BF     		it	gt
 372 00b2 3E20     		movgt	r0, #62
 373              	.LVL36:
 374 00b4 9A42     		cmp	r2, r3
 375 00b6 0AD1     		bne	.L38
 376 00b8 03B0     		add	sp, sp, #12
 377              		.cfi_remember_state
 378              		.cfi_def_cfa_offset 20
 379              		@ sp needed
 380 00ba F0BD     		pop	{r4, r5, r6, r7, pc}
 381              	.LVL37:
 382              	.L36:
 383              		.cfi_restore_state
 384              		.loc 1 94 0
 385 00bc 781A     		subs	r0, r7, r1
 386              	.LVL38:
 387              		.loc 1 95 0
 388 00be 0B44     		add	r3, r3, r1
 389 00c0 084A     		ldr	r2, .L39+16
 390              	.LVL39:
 391              		.loc 1 94 0
 392 00c2 0649     		ldr	r1, .L39+8
 393 00c4 80B2     		uxth	r0, r0
 394              	.LVL40:
 395              		.loc 1 95 0
 396 00c6 5B10     		asrs	r3, r3, #1
 397              		.loc 1 94 0
 398 00c8 0880     		strh	r0, [r1]	@ movhi
 399              		.loc 1 95 0
ARM GAS  C:\Users\Marc\AppData\Local\Temp\ccYDcUlt.s 			page 8


 400 00ca 1380     		strh	r3, [r2]	@ movhi
 401 00cc E0E7     		b	.L25
 402              	.LVL41:
 403              	.L38:
 404              		.loc 1 104 0
 405 00ce FFF7FEFF 		bl	__stack_chk_fail
 406              	.LVL42:
 407              	.L40:
 408 00d2 00BF     		.align	2
 409              	.L39:
 410 00d4 00000000 		.word	__stack_chk_guard
 411 00d8 CDCCCCCC 		.word	-858993459
 412 00dc 00000000 		.word	.LANCHOR3
 413 00e0 0040C444 		.word	1153712128
 414 00e4 00000000 		.word	.LANCHOR4
 415              		.cfi_endproc
 416              	.LFE257:
 417              		.size	extract_line_width, .-extract_line_width
 418              		.section	.text.ProcessImage,"ax",%progbits
 419              		.align	1
 420              		.p2align 4,,15
 421              		.syntax unified
 422              		.thumb
 423              		.thumb_func
 424              		.fpu fpv4-sp-d16
 425              		.type	ProcessImage, %function
 426              	ProcessImage:
 427              	.LFB259:
 428              		.loc 1 130 0
 429              		.cfi_startproc
 430              		@ args = 0, pretend = 0, frame = 656
 431              		@ frame_needed = 0, uses_anonymous_args = 0
 432              	.LVL43:
 433 0000 2DE9F047 		push	{r4, r5, r6, r7, r8, r9, r10, lr}
 434              		.cfi_def_cfa_offset 32
 435              		.cfi_offset 4, -32
 436              		.cfi_offset 5, -28
 437              		.cfi_offset 6, -24
 438              		.cfi_offset 7, -20
 439              		.cfi_offset 8, -16
 440              		.cfi_offset 9, -12
 441              		.cfi_offset 10, -8
 442              		.cfi_offset 14, -4
 443 0004 2DED028B 		vpush.64	{d8}
 444              		.cfi_def_cfa_offset 40
 445              		.cfi_offset 80, -40
 446              		.cfi_offset 81, -36
 447              	.LBB117:
 448              	.LBB118:
 449              		.loc 2 135 0
 450 0008 2B4D     		ldr	r5, .L52
 451              	.LBE118:
 452              	.LBE117:
 453              		.loc 1 130 0
 454 000a 2C4B     		ldr	r3, .L52+4
 455              	.LBB120:
 456              	.LBB119:
ARM GAS  C:\Users\Marc\AppData\Local\Temp\ccYDcUlt.s 			page 9


 457              		.loc 2 135 0
 458 000c AA69     		ldr	r2, [r5, #24]
 459 000e 2C49     		ldr	r1, .L52+8
 460 0010 9161     		str	r1, [r2, #24]
 461              	.LBE119:
 462              	.LBE120:
 463              		.loc 1 130 0
 464 0012 ADF5247D 		sub	sp, sp, #656
 465              		.cfi_def_cfa_offset 696
 466              		.loc 1 139 0
 467 0016 0DF10C09 		add	r9, sp, #12
 468              		.loc 1 130 0
 469 001a 1B68     		ldr	r3, [r3]
 470 001c A393     		str	r3, [sp, #652]
 471              		.loc 1 139 0
 472 001e 4846     		mov	r0, r9
 473              	.LVL44:
 474 0020 4FF42072 		mov	r2, #640
 475 0024 0021     		movs	r1, #0
 476 0026 FFF7FEFF 		bl	memset
 477              	.LVL45:
 478 002a 264F     		ldr	r7, .L52+12
 479              	.LBB121:
 480              	.LBB122:
 481              	.LBB123:
 482              	.LBB124:
 483              		.loc 3 367 0
 484 002c DFF8A080 		ldr	r8, .L52+24
 485              	.LBE124:
 486              	.LBE123:
 487              	.LBE122:
 488              	.LBE121:
 489              	.LBB138:
 490              	.LBB139:
 491              		.loc 4 143 0
 492 0030 254E     		ldr	r6, .L52+16
 493              	.LBE139:
 494              	.LBE138:
 495              		.loc 1 164 0
 496 0032 9FED268A 		vldr.32	s16, .L52+20
 497              	.LVL46:
 498              	.L45:
 499              	.LBB142:
 500              	.LBB137:
 501              	.LBB129:
 502              	.LBB130:
 503              	.LBB131:
 504              	.LBB132:
 505              	.LBB133:
 506              		.loc 5 546 0
 507 0036 2023     		movs	r3, #32
 508              		.syntax unified
 509              	@ 546 "../lib/e-puck2_main-processor/ChibiOS//os/ext/CMSIS/include/core_cmFunc.h" 1
 510 0038 83F31188 		MSR basepri, r3
 511              	@ 0 "" 2
 512              	.LVL47:
 513              		.thumb
ARM GAS  C:\Users\Marc\AppData\Local\Temp\ccYDcUlt.s 			page 10


 514              		.syntax unified
 515              	.LBE133:
 516              	.LBE132:
 517              	.LBE131:
 518              		.loc 3 349 0
 519 003c FFF7FEFF 		bl	_stats_start_measure_crit_thd
 520              	.LVL48:
 521              		.loc 3 350 0
 522 0040 FFF7FEFF 		bl	_dbg_check_lock
 523              	.LVL49:
 524              	.LBE130:
 525              	.LBE129:
 526              	.LBB134:
 527              	.LBB135:
 528              		.file 6 "../lib/e-puck2_main-processor/ChibiOS//os/rt/include/chvt.h"
 529              		.loc 6 231 0
 530 0044 D5F828A0 		ldr	r10, [r5, #40]
 531              	.LBE135:
 532              	.LBE134:
 533              	.LBB136:
 534              	.LBB128:
 535              		.loc 3 360 0
 536 0048 FFF7FEFF 		bl	_dbg_check_unlock
 537              	.LVL50:
 538              		.loc 3 361 0
 539 004c FFF7FEFF 		bl	_stats_stop_measure_crit_thd
 540              	.LVL51:
 541              		.loc 3 367 0
 542 0050 2B68     		ldr	r3, [r5]
 543 0052 AB42     		cmp	r3, r5
 544 0054 07D0     		beq	.L42
 545 0056 AA69     		ldr	r2, [r5, #24]
 546 0058 9B68     		ldr	r3, [r3, #8]
 547 005a 9268     		ldr	r2, [r2, #8]
 548 005c 9A42     		cmp	r2, r3
 549 005e 02D2     		bcs	.L42
 550 0060 4046     		mov	r0, r8
 551 0062 FFF7FEFF 		bl	chSysHalt
 552              	.LVL52:
 553              	.L42:
 554              	.LBB125:
 555              	.LBB126:
 556              	.LBB127:
 557              		.loc 5 546 0
 558 0066 0024     		movs	r4, #0
 559              		.syntax unified
 560              	@ 546 "../lib/e-puck2_main-processor/ChibiOS//os/ext/CMSIS/include/core_cmFunc.h" 1
 561 0068 84F31188 		MSR basepri, r4
 562              	@ 0 "" 2
 563              	.LVL53:
 564              		.thumb
 565              		.syntax unified
 566              	.LBE127:
 567              	.LBE126:
 568              	.LBE125:
 569              	.LBE128:
 570              	.LBE136:
ARM GAS  C:\Users\Marc\AppData\Local\Temp\ccYDcUlt.s 			page 11


 571              	.LBE137:
 572              	.LBE142:
 573              	.LBB143:
 574              	.LBB140:
 575              		.loc 4 143 0
 576 006c 3046     		mov	r0, r6
 577              	.LBE140:
 578              	.LBE143:
 579              		.loc 1 145 0
 580 006e CDF808A0 		str	r10, [sp, #8]
 581              	.LVL54:
 582              	.LBB144:
 583              	.LBB141:
 584              		.loc 4 143 0
 585 0072 FFF7FEFF 		bl	chSemWait
 586              	.LVL55:
 587              	.LBE141:
 588              	.LBE144:
 589              		.loc 1 150 0
 590 0076 FFF7FEFF 		bl	dcmi_get_last_image_ptr
 591              	.LVL56:
 592 007a 2346     		mov	r3, r4
 593              	.LVL57:
 594              	.L43:
 595              	.LBB145:
 596              		.loc 1 156 0 discriminator 3
 597 007c C25C     		ldrb	r2, [r0, r3]	@ zero_extendqisi2
 598 007e C3F34E01 		ubfx	r1, r3, #1, #15
 599 0082 0233     		adds	r3, r3, #2
 600              	.LVL58:
 601 0084 22F00702 		bic	r2, r2, #7
 602              		.loc 1 153 0 discriminator 3
 603 0088 B3F5A06F 		cmp	r3, #1280
 604              		.loc 1 156 0 discriminator 3
 605 008c 09F80120 		strb	r2, [r9, r1]
 606              		.loc 1 153 0 discriminator 3
 607 0090 F4D1     		bne	.L43
 608              	.LBE145:
 609              		.loc 1 160 0
 610 0092 4846     		mov	r0, r9
 611              	.LVL59:
 612 0094 FFF7FEFF 		bl	extract_line_width
 613              	.LVL60:
 614              		.loc 1 163 0
 615 0098 0190     		str	r0, [sp, #4]
 616 009a 38B1     		cbz	r0, .L44
 617              		.loc 1 164 0
 618 009c 07EE900A 		vmov	s15, r0	@ int
 619 00a0 F8EEE77A 		vcvt.f32.s32	s15, s15
 620 00a4 88EE277A 		vdiv.f32	s14, s16, s15
 621 00a8 87ED007A 		vstr.32	s14, [r7]
 622              	.L44:
 623              		.loc 1 173 0
 624 00ac 0298     		ldr	r0, [sp, #8]
 625 00ae 0299     		ldr	r1, [sp, #8]
 626 00b0 6431     		adds	r1, r1, #100
 627 00b2 FFF7FEFF 		bl	chThdSleepUntilWindowed
ARM GAS  C:\Users\Marc\AppData\Local\Temp\ccYDcUlt.s 			page 12


 628              	.LVL61:
 629              		.loc 1 145 0
 630 00b6 BEE7     		b	.L45
 631              	.L53:
 632              		.align	2
 633              	.L52:
 634 00b8 00000000 		.word	ch
 635 00bc 00000000 		.word	__stack_chk_guard
 636 00c0 00000000 		.word	.LANCHOR5
 637 00c4 00000000 		.word	.LANCHOR6
 638 00c8 00000000 		.word	.LANCHOR1
 639 00cc 0040C444 		.word	1153712128
 640 00d0 00000000 		.word	.LANCHOR2
 641              		.cfi_endproc
 642              	.LFE259:
 643              		.size	ProcessImage, .-ProcessImage
 644              		.section	.text.get_distance_cm,"ax",%progbits
 645              		.align	1
 646              		.p2align 4,,15
 647              		.global	get_distance_cm
 648              		.syntax unified
 649              		.thumb
 650              		.thumb_func
 651              		.fpu fpv4-sp-d16
 652              		.type	get_distance_cm, %function
 653              	get_distance_cm:
 654              	.LFB260:
 655              		.loc 1 177 0
 656              		.cfi_startproc
 657              		@ args = 0, pretend = 0, frame = 8
 658              		@ frame_needed = 0, uses_anonymous_args = 0
 659 0000 00B5     		push	{lr}
 660              		.cfi_def_cfa_offset 4
 661              		.cfi_offset 14, -4
 662 0002 084B     		ldr	r3, .L58
 663              		.loc 1 178 0
 664 0004 0849     		ldr	r1, .L58+4
 665              		.loc 1 177 0
 666 0006 1A68     		ldr	r2, [r3]
 667              		.loc 1 179 0
 668 0008 91ED000A 		vldr.32	s0, [r1]
 669              		.loc 1 177 0
 670 000c 83B0     		sub	sp, sp, #12
 671              		.cfi_def_cfa_offset 16
 672              		.loc 1 177 0
 673 000e 0192     		str	r2, [sp, #4]
 674              		.loc 1 179 0
 675 0010 019A     		ldr	r2, [sp, #4]
 676 0012 1B68     		ldr	r3, [r3]
 677 0014 9A42     		cmp	r2, r3
 678 0016 02D1     		bne	.L57
 679 0018 03B0     		add	sp, sp, #12
 680              		.cfi_remember_state
 681              		.cfi_def_cfa_offset 4
 682              		@ sp needed
 683 001a 5DF804FB 		ldr	pc, [sp], #4
 684              	.L57:
ARM GAS  C:\Users\Marc\AppData\Local\Temp\ccYDcUlt.s 			page 13


 685              		.cfi_restore_state
 686 001e FFF7FEFF 		bl	__stack_chk_fail
 687              	.LVL62:
 688              	.L59:
 689 0022 00BF     		.align	2
 690              	.L58:
 691 0024 00000000 		.word	__stack_chk_guard
 692 0028 00000000 		.word	.LANCHOR6
 693              		.cfi_endproc
 694              	.LFE260:
 695              		.size	get_distance_cm, .-get_distance_cm
 696              		.section	.text.get_line_position,"ax",%progbits
 697              		.align	1
 698              		.p2align 4,,15
 699              		.global	get_line_position
 700              		.syntax unified
 701              		.thumb
 702              		.thumb_func
 703              		.fpu fpv4-sp-d16
 704              		.type	get_line_position, %function
 705              	get_line_position:
 706              	.LFB261:
 707              		.loc 1 181 0
 708              		.cfi_startproc
 709              		@ args = 0, pretend = 0, frame = 8
 710              		@ frame_needed = 0, uses_anonymous_args = 0
 711 0000 00B5     		push	{lr}
 712              		.cfi_def_cfa_offset 4
 713              		.cfi_offset 14, -4
 714 0002 074B     		ldr	r3, .L64
 715              		.loc 1 182 0
 716 0004 0749     		ldr	r1, .L64+4
 717              		.loc 1 181 0
 718 0006 1A68     		ldr	r2, [r3]
 719              		.loc 1 183 0
 720 0008 0888     		ldrh	r0, [r1]
 721              		.loc 1 181 0
 722 000a 83B0     		sub	sp, sp, #12
 723              		.cfi_def_cfa_offset 16
 724              		.loc 1 181 0
 725 000c 0192     		str	r2, [sp, #4]
 726              		.loc 1 183 0
 727 000e 019A     		ldr	r2, [sp, #4]
 728 0010 1B68     		ldr	r3, [r3]
 729 0012 9A42     		cmp	r2, r3
 730 0014 02D1     		bne	.L63
 731 0016 03B0     		add	sp, sp, #12
 732              		.cfi_remember_state
 733              		.cfi_def_cfa_offset 4
 734              		@ sp needed
 735 0018 5DF804FB 		ldr	pc, [sp], #4
 736              	.L63:
 737              		.cfi_restore_state
 738 001c FFF7FEFF 		bl	__stack_chk_fail
 739              	.LVL63:
 740              	.L65:
 741              		.align	2
ARM GAS  C:\Users\Marc\AppData\Local\Temp\ccYDcUlt.s 			page 14


 742              	.L64:
 743 0020 00000000 		.word	__stack_chk_guard
 744 0024 00000000 		.word	.LANCHOR4
 745              		.cfi_endproc
 746              	.LFE261:
 747              		.size	get_line_position, .-get_line_position
 748              		.section	.text.process_image_start,"ax",%progbits
 749              		.align	1
 750              		.p2align 4,,15
 751              		.global	process_image_start
 752              		.syntax unified
 753              		.thumb
 754              		.thumb_func
 755              		.fpu fpv4-sp-d16
 756              		.type	process_image_start, %function
 757              	process_image_start:
 758              	.LFB262:
 759              		.loc 1 185 0
 760              		.cfi_startproc
 761              		@ args = 0, pretend = 0, frame = 8
 762              		@ frame_needed = 0, uses_anonymous_args = 0
 763 0000 30B5     		push	{r4, r5, lr}
 764              		.cfi_def_cfa_offset 12
 765              		.cfi_offset 4, -12
 766              		.cfi_offset 5, -8
 767              		.cfi_offset 14, -4
 768 0002 0E4C     		ldr	r4, .L70
 769              		.loc 1 186 0
 770 0004 0E4B     		ldr	r3, .L70+4
 771              		.loc 1 185 0
 772 0006 2268     		ldr	r2, [r4]
 773              		.loc 1 186 0
 774 0008 0E48     		ldr	r0, .L70+8
 775              		.loc 1 185 0
 776 000a 85B0     		sub	sp, sp, #20
 777              		.cfi_def_cfa_offset 32
 778              		.loc 1 186 0
 779 000c 0025     		movs	r5, #0
 780              		.loc 1 185 0
 781 000e 0392     		str	r2, [sp, #12]
 782              		.loc 1 186 0
 783 0010 4FF4AF61 		mov	r1, #1400
 784 0014 4022     		movs	r2, #64
 785 0016 0095     		str	r5, [sp]
 786 0018 FFF7FEFF 		bl	chThdCreateStatic
 787              	.LVL64:
 788              		.loc 1 187 0
 789 001c 0A4B     		ldr	r3, .L70+12
 790 001e 0095     		str	r5, [sp]
 791 0020 4022     		movs	r2, #64
 792 0022 0A48     		ldr	r0, .L70+16
 793 0024 4FF45071 		mov	r1, #832
 794 0028 FFF7FEFF 		bl	chThdCreateStatic
 795              	.LVL65:
 796              		.loc 1 188 0
 797 002c 039A     		ldr	r2, [sp, #12]
 798 002e 2368     		ldr	r3, [r4]
ARM GAS  C:\Users\Marc\AppData\Local\Temp\ccYDcUlt.s 			page 15


 799 0030 9A42     		cmp	r2, r3
 800 0032 01D1     		bne	.L69
 801 0034 05B0     		add	sp, sp, #20
 802              		.cfi_remember_state
 803              		.cfi_def_cfa_offset 12
 804              		@ sp needed
 805 0036 30BD     		pop	{r4, r5, pc}
 806              	.L69:
 807              		.cfi_restore_state
 808 0038 FFF7FEFF 		bl	__stack_chk_fail
 809              	.LVL66:
 810              	.L71:
 811              		.align	2
 812              	.L70:
 813 003c 00000000 		.word	__stack_chk_guard
 814 0040 00000000 		.word	ProcessImage
 815 0044 00000000 		.word	.LANCHOR7
 816 0048 00000000 		.word	CaptureImage
 817 004c 00000000 		.word	.LANCHOR8
 818              		.cfi_endproc
 819              	.LFE262:
 820              		.size	process_image_start, .-process_image_start
 821              		.section	.text.close_line,"ax",%progbits
 822              		.align	1
 823              		.p2align 4,,15
 824              		.global	close_line
 825              		.syntax unified
 826              		.thumb
 827              		.thumb_func
 828              		.fpu fpv4-sp-d16
 829              		.type	close_line, %function
 830              	close_line:
 831              	.LFB263:
 832              		.loc 1 190 0
 833              		.cfi_startproc
 834              		@ args = 0, pretend = 0, frame = 8
 835              		@ frame_needed = 0, uses_anonymous_args = 0
 836 0000 30B5     		push	{r4, r5, lr}
 837              		.cfi_def_cfa_offset 12
 838              		.cfi_offset 4, -12
 839              		.cfi_offset 5, -8
 840              		.cfi_offset 14, -4
 841 0002 0F4C     		ldr	r4, .L80
 842              		.loc 1 191 0
 843 0004 0F4B     		ldr	r3, .L80+4
 844              		.loc 1 190 0
 845 0006 2268     		ldr	r2, [r4]
 846              		.loc 1 191 0
 847 0008 1D88     		ldrh	r5, [r3]
 848              	.LVL67:
 849              		.loc 1 190 0
 850 000a 83B0     		sub	sp, sp, #12
 851              		.cfi_def_cfa_offset 24
 852              		.loc 1 192 0
 853 000c 6420     		movs	r0, #100
 854              		.loc 1 190 0
 855 000e 0192     		str	r2, [sp, #4]
ARM GAS  C:\Users\Marc\AppData\Local\Temp\ccYDcUlt.s 			page 16


 856              		.loc 1 192 0
 857 0010 FFF7FEFF 		bl	obstacle
 858              	.LVL68:
 859 0014 50B1     		cbz	r0, .L73
 860              		.loc 1 193 0
 861 0016 B5F5967F 		cmp	r5, #300
 862 001a 0DD9     		bls	.L76
 863              		.loc 1 196 0
 864 001c 6FF49673 		mvn	r3, #300
 865 0020 1D44     		add	r5, r5, r3
 866              	.LVL69:
 867 0022 B5F5967F 		cmp	r5, #300
 868              		.loc 1 197 0
 869 0026 2CBF     		ite	cs
 870 0028 0020     		movcs	r0, #0
 871 002a 0220     		movcc	r0, #2
 872              	.LVL70:
 873              	.L73:
 874              		.loc 1 201 0
 875 002c 019A     		ldr	r2, [sp, #4]
 876 002e 2368     		ldr	r3, [r4]
 877 0030 9A42     		cmp	r2, r3
 878 0032 03D1     		bne	.L79
 879 0034 03B0     		add	sp, sp, #12
 880              		.cfi_remember_state
 881              		.cfi_def_cfa_offset 12
 882              		@ sp needed
 883 0036 30BD     		pop	{r4, r5, pc}
 884              	.LVL71:
 885              	.L76:
 886              		.cfi_restore_state
 887              		.loc 1 194 0
 888 0038 0320     		movs	r0, #3
 889 003a F7E7     		b	.L73
 890              	.LVL72:
 891              	.L79:
 892              		.loc 1 201 0
 893 003c FFF7FEFF 		bl	__stack_chk_fail
 894              	.LVL73:
 895              	.L81:
 896              		.align	2
 897              	.L80:
 898 0040 00000000 		.word	__stack_chk_guard
 899 0044 00000000 		.word	.LANCHOR4
 900              		.cfi_endproc
 901              	.LFE263:
 902              		.size	close_line, .-close_line
 903              		.section	.bss.distance_cm,"aw",%nobits
 904              		.align	2
 905              		.set	.LANCHOR6,. + 0
 906              		.type	distance_cm, %object
 907              		.size	distance_cm, 4
 908              	distance_cm:
 909 0000 00000000 		.space	4
 910              		.section	.bss.waCaptureImage,"aw",%nobits
 911              		.align	3
 912              		.set	.LANCHOR8,. + 0
ARM GAS  C:\Users\Marc\AppData\Local\Temp\ccYDcUlt.s 			page 17


 913              		.type	waCaptureImage, %object
 914              		.size	waCaptureImage, 832
 915              	waCaptureImage:
 916 0000 00000000 		.space	832
 916      00000000 
 916      00000000 
 916      00000000 
 916      00000000 
 917              		.section	.bss.waProcessImage,"aw",%nobits
 918              		.align	3
 919              		.set	.LANCHOR7,. + 0
 920              		.type	waProcessImage, %object
 921              		.size	waProcessImage, 1400
 922              	waProcessImage:
 923 0000 00000000 		.space	1400
 923      00000000 
 923      00000000 
 923      00000000 
 923      00000000 
 924              		.section	.data.image_ready_sem,"aw",%progbits
 925              		.align	2
 926              		.set	.LANCHOR1,. + 0
 927              		.type	image_ready_sem, %object
 928              		.size	image_ready_sem, 12
 929              	image_ready_sem:
 930 0000 00000000 		.word	image_ready_sem
 931 0004 00000000 		.word	image_ready_sem
 932 0008 00000000 		.word	0
 933              		.section	.data.last_width.11377,"aw",%progbits
 934              		.align	1
 935              		.set	.LANCHOR3,. + 0
 936              		.type	last_width.11377, %object
 937              		.size	last_width.11377, 2
 938              	last_width.11377:
 939 0000 9D00     		.short	157
 940              		.section	.data.line_position,"aw",%progbits
 941              		.align	1
 942              		.set	.LANCHOR4,. + 0
 943              		.type	line_position, %object
 944              		.size	line_position, 2
 945              	line_position:
 946 0000 4001     		.short	320
 947              		.section	.rodata.__FUNCTION__.11394,"a",%progbits
 948              		.align	2
 949              		.set	.LANCHOR0,. + 0
 950              		.type	__FUNCTION__.11394, %object
 951              		.size	__FUNCTION__.11394, 13
 952              	__FUNCTION__.11394:
 953 0000 43617074 		.ascii	"CaptureImage\000"
 953      75726549 
 953      6D616765 
 953      00
 954              		.section	.rodata.__FUNCTION__.11400,"a",%progbits
 955              		.align	2
 956              		.set	.LANCHOR5,. + 0
 957              		.type	__FUNCTION__.11400, %object
 958              		.size	__FUNCTION__.11400, 13
ARM GAS  C:\Users\Marc\AppData\Local\Temp\ccYDcUlt.s 			page 18


 959              	__FUNCTION__.11400:
 960 0000 50726F63 		.ascii	"ProcessImage\000"
 960      65737349 
 960      6D616765 
 960      00
 961              		.section	.rodata.__func__.7153,"a",%progbits
 962              		.align	2
 963              		.set	.LANCHOR2,. + 0
 964              		.type	__func__.7153, %object
 965              		.size	__func__.7153, 12
 966              	__func__.7153:
 967 0000 63685379 		.ascii	"chSysUnlock\000"
 967      73556E6C 
 967      6F636B00 
 968              		.text
 969              	.Letext0:
 970              		.file 7 "c:\\users\\marc\\documents\\eclipse_e-puck2\\tools\\gcc-arm-none-eabi-7-2017-q4-major-win
 971              		.file 8 "c:\\users\\marc\\documents\\eclipse_e-puck2\\tools\\gcc-arm-none-eabi-7-2017-q4-major-win
 972              		.file 9 "c:\\users\\marc\\documents\\eclipse_e-puck2\\tools\\gcc-arm-none-eabi-7-2017-q4-major-win
 973              		.file 10 "../lib/e-puck2_main-processor/ChibiOS//os/rt/ports/ARMCMx/compilers/GCC/chtypes.h"
 974              		.file 11 "../lib/e-puck2_main-processor/ChibiOS//os/rt/include/chsystypes.h"
 975              		.file 12 "../lib/e-puck2_main-processor/ChibiOS//os/rt/include/chschd.h"
 976              		.file 13 "../lib/e-puck2_main-processor/ChibiOS//os/ext/CMSIS/include/core_cm4.h"
 977              		.file 14 "../lib/e-puck2_main-processor/ChibiOS//os/ext/CMSIS/ST/system_stm32f4xx.h"
 978              		.file 15 "../lib/e-puck2_main-processor/ChibiOS//os/ext/CMSIS/ST/stm32f407xx.h"
 979              		.file 16 "../lib/e-puck2_main-processor/ChibiOS//os/rt/ports/ARMCMx/chcore.h"
 980              		.file 17 "../lib/e-puck2_main-processor/ChibiOS//os/rt/ports/ARMCMx/chcore_v7m.h"
 981              		.file 18 "../lib/e-puck2_main-processor/ChibiOS//os/rt/include/chdebug.h"
 982              		.file 19 "../lib/e-puck2_main-processor/ChibiOS//os/rt/include/chtm.h"
 983              		.file 20 "../lib/e-puck2_main-processor/ChibiOS//os/rt/include/chstats.h"
 984              		.file 21 "../lib/e-puck2_main-processor/ChibiOS//os/rt/include/chsem.h"
 985              		.file 22 "../lib/e-puck2_main-processor/ChibiOS//os/rt/include/chmtx.h"
 986              		.file 23 "../lib/e-puck2_main-processor/ChibiOS//os/rt/include/chevents.h"
 987              		.file 24 "../lib/e-puck2_main-processor/ChibiOS//os/rt/include/chqueues.h"
 988              		.file 25 "../lib/e-puck2_main-processor/ChibiOS//os/hal/ports/STM32/STM32F4xx/stm32_dma.h"
 989              		.file 26 "../lib/e-puck2_main-processor/ChibiOS//os/hal/include/hal_ioblock.h"
 990              		.file 27 "../lib/e-puck2_main-processor/ChibiOS//os/hal/ports/STM32/LLD/GPIOv2/pal_lld.h"
 991              		.file 28 "../lib/e-puck2_main-processor/ChibiOS//os/hal/include/adc.h"
 992              		.file 29 "../lib/e-puck2_main-processor/ChibiOS//os/hal/ports/STM32/STM32F4xx/adc_lld.h"
 993              		.file 30 "../lib/e-puck2_main-processor/ChibiOS//os/hal/include/can.h"
 994              		.file 31 "../lib/e-puck2_main-processor/ChibiOS//os/hal/ports/STM32/LLD/can_lld.h"
 995              		.file 32 "../lib/e-puck2_main-processor/ChibiOS//os/hal/include/dac.h"
 996              		.file 33 "../lib/e-puck2_main-processor/ChibiOS//os/hal/ports/STM32/LLD/DACv1/dac_lld.h"
 997              		.file 34 "../lib/e-puck2_main-processor/ChibiOS//os/hal/include/ext.h"
 998              		.file 35 "../lib/e-puck2_main-processor/ChibiOS//os/hal/ports/STM32/LLD/ext_lld.h"
 999              		.file 36 "../lib/e-puck2_main-processor/ChibiOS//os/hal/include/gpt.h"
 1000              		.file 37 "../lib/e-puck2_main-processor/ChibiOS//os/hal/ports/STM32/LLD/TIMv1/gpt_lld.h"
 1001              		.file 38 "../lib/e-puck2_main-processor/ChibiOS//os/hal/ports/STM32/LLD/TIMv1/stm32_tim.h"
 1002              		.file 39 "../lib/e-puck2_main-processor/ChibiOS//os/hal/include/i2c.h"
 1003              		.file 40 "../lib/e-puck2_main-processor/ChibiOS//os/hal/ports/STM32/LLD/I2Cv1/i2c_lld.h"
 1004              		.file 41 "../lib/e-puck2_main-processor/ChibiOS//os/hal/include/i2s.h"
 1005              		.file 42 "../lib/e-puck2_main-processor/ChibiOS//os/hal/ports/STM32/LLD/SPIv1/i2s_lld.h"
 1006              		.file 43 "../lib/e-puck2_main-processor/ChibiOS//os/hal/include/pwm.h"
 1007              		.file 44 "../lib/e-puck2_main-processor/ChibiOS//os/hal/ports/STM32/LLD/TIMv1/pwm_lld.h"
 1008              		.file 45 "../lib/e-puck2_main-processor/ChibiOS//os/hal/include/serial.h"
 1009              		.file 46 "../lib/e-puck2_main-processor/ChibiOS//os/hal/ports/STM32/LLD/USARTv1/serial_lld.h"
 1010              		.file 47 "../lib/e-puck2_main-processor/ChibiOS//os/hal/include/sdc.h"
ARM GAS  C:\Users\Marc\AppData\Local\Temp\ccYDcUlt.s 			page 19


 1011              		.file 48 "../lib/e-puck2_main-processor/ChibiOS//os/hal/ports/STM32/LLD/sdc_lld.h"
 1012              		.file 49 "../lib/e-puck2_main-processor/ChibiOS//os/hal/include/spi.h"
 1013              		.file 50 "../lib/e-puck2_main-processor/ChibiOS//os/hal/ports/STM32/LLD/SPIv1/spi_lld.h"
 1014              		.file 51 "../lib/e-puck2_main-processor/ChibiOS//os/hal/include/usb.h"
 1015              		.file 52 "../lib/e-puck2_main-processor/ChibiOS//os/hal/ports/STM32/LLD/OTGv1/usb_lld.h"
 1016              		.file 53 "../lib/e-puck2_main-processor/ChibiOS//os/hal/ports/STM32/LLD/OTGv1/stm32_otg.h"
 1017              		.file 54 "../lib/e-puck2_main-processor/ChibiOS//os/hal/include/serial_usb.h"
 1018              		.file 55 "../lib/e-puck2_main-processor/src/usbcfg.h"
 1019              		.file 56 "../lib/e-puck2_main-processor/ChibiOS_ext/os/hal/include/../ports/STM32/STM32F4xx/dcmi_l
 1020              		.file 57 "../lib/e-puck2_main-processor/src/camera/po8030.h"
 1021              		.file 58 "../lib/e-puck2_main-processor/src/camera/dcmi_camera.h"
 1022              		.file 59 "c:\\users\\marc\\documents\\eclipse_e-puck2\\tools\\gcc-arm-none-eabi-7-2017-q4-major-wi
 1023              		.file 60 "c:\\users\\marc\\documents\\eclipse_e-puck2\\tools\\gcc-arm-none-eabi-7-2017-q4-major-wi
 1024              		.file 61 "c:\\users\\marc\\documents\\eclipse_e-puck2\\tools\\gcc-arm-none-eabi-7-2017-q4-major-wi
 1025              		.file 62 "../lib/e-puck2_main-processor/src/msgbus/messagebus.h"
 1026              		.file 63 "c:\\users\\marc\\documents\\eclipse_e-puck2\\tools\\gcc-arm-none-eabi-7-2017-q4-major-wi
 1027              		.file 64 "c:\\users\\marc\\documents\\eclipse_e-puck2\\tools\\gcc-arm-none-eabi-7-2017-q4-major-wi
 1028              		.file 65 "../lib/e-puck2_main-processor/src/parameter/parameter.h"
 1029              		.file 66 "./main.h"
 1030              		.file 67 "./camera_processing.h"
 1031              		.file 68 "./ir_thread.h"
 1032              		.file 69 "../lib/e-puck2_main-processor/ChibiOS//os/rt/include/chthreads.h"
 1033              		.file 70 "<built-in>"