ARM GAS  C:\Users\Marc\AppData\Local\Temp\ccffzsSK.s 			page 1


   1              		.cpu cortex-m4
   2              		.eabi_attribute 27, 1
   3              		.eabi_attribute 28, 1
   4              		.eabi_attribute 20, 1
   5              		.eabi_attribute 21, 1
   6              		.eabi_attribute 23, 3
   7              		.eabi_attribute 24, 1
   8              		.eabi_attribute 25, 1
   9              		.eabi_attribute 26, 1
  10              		.eabi_attribute 30, 2
  11              		.eabi_attribute 34, 1
  12              		.eabi_attribute 18, 4
  13              		.file	"game_management.c"
  14              		.text
  15              	.Ltext0:
  16              		.cfi_sections	.debug_frame
  17              		.section	.text.chprintf.constprop.2,"ax",%progbits
  18              		.align	1
  19              		.p2align 4,,15
  20              		.syntax unified
  21              		.thumb
  22              		.thumb_func
  23              		.fpu fpv4-sp-d16
  24              		.type	chprintf.constprop.2, %function
  25              	chprintf.constprop.2:
  26              	.LFB308:
  27              		.file 1 "../lib/e-puck2_main-processor/ChibiOS//os/hal/lib/streams/chprintf.h"
  28              		.loc 1 69 0
  29              		.cfi_startproc
  30              		@ args = 4, pretend = 12, frame = 8
  31              		@ frame_needed = 0, uses_anonymous_args = 1
  32              	.LVL0:
  33 0000 0EB4     		push	{r1, r2, r3}
  34              		.cfi_def_cfa_offset 12
  35              		.cfi_offset 1, -12
  36              		.cfi_offset 2, -8
  37              		.cfi_offset 3, -4
  38 0002 10B5     		push	{r4, lr}
  39              		.cfi_def_cfa_offset 20
  40              		.cfi_offset 4, -20
  41              		.cfi_offset 14, -16
  42 0004 83B0     		sub	sp, sp, #12
  43              		.cfi_def_cfa_offset 32
  44              		.loc 1 69 0
  45 0006 05AA     		add	r2, sp, #20
  46 0008 094C     		ldr	r4, .L6
  47 000a 52F8041B 		ldr	r1, [r2], #4
  48 000e 2368     		ldr	r3, [r4]
  49              		.loc 1 74 0
  50 0010 0848     		ldr	r0, .L6+4
  51              	.LVL1:
  52              		.loc 1 73 0
  53 0012 0092     		str	r2, [sp]
  54              		.loc 1 69 0
  55 0014 0193     		str	r3, [sp, #4]
  56              	.LVL2:
  57              		.loc 1 74 0
ARM GAS  C:\Users\Marc\AppData\Local\Temp\ccffzsSK.s 			page 2


  58 0016 FFF7FEFF 		bl	chvprintf
  59              	.LVL3:
  60              		.loc 1 78 0
  61 001a 019A     		ldr	r2, [sp, #4]
  62 001c 2368     		ldr	r3, [r4]
  63 001e 9A42     		cmp	r2, r3
  64 0020 04D1     		bne	.L5
  65 0022 03B0     		add	sp, sp, #12
  66              		.cfi_remember_state
  67              		.cfi_def_cfa_offset 20
  68              		@ sp needed
  69 0024 BDE81040 		pop	{r4, lr}
  70              		.cfi_restore 14
  71              		.cfi_restore 4
  72              		.cfi_def_cfa_offset 12
  73 0028 03B0     		add	sp, sp, #12
  74              		.cfi_restore 3
  75              		.cfi_restore 2
  76              		.cfi_restore 1
  77              		.cfi_def_cfa_offset 0
  78 002a 7047     		bx	lr
  79              	.L5:
  80              		.cfi_restore_state
  81 002c FFF7FEFF 		bl	__stack_chk_fail
  82              	.LVL4:
  83              	.L7:
  84              		.align	2
  85              	.L6:
  86 0030 00000000 		.word	__stack_chk_guard
  87 0034 00000000 		.word	SD3
  88              		.cfi_endproc
  89              	.LFE308:
  90              		.size	chprintf.constprop.2, .-chprintf.constprop.2
  91              		.section	.text.update_map_position,"ax",%progbits
  92              		.align	1
  93              		.p2align 4,,15
  94              		.global	update_map_position
  95              		.syntax unified
  96              		.thumb
  97              		.thumb_func
  98              		.fpu fpv4-sp-d16
  99              		.type	update_map_position, %function
 100              	update_map_position:
 101              	.LFB293:
 102              		.file 2 "game_management.c"
 103              		.loc 2 39 0
 104              		.cfi_startproc
 105              		@ args = 0, pretend = 0, frame = 8
 106              		@ frame_needed = 0, uses_anonymous_args = 0
 107 0000 30B5     		push	{r4, r5, lr}
 108              		.cfi_def_cfa_offset 12
 109              		.cfi_offset 4, -12
 110              		.cfi_offset 5, -8
 111              		.cfi_offset 14, -4
 112 0002 2DED028B 		vpush.64	{d8}
 113              		.cfi_def_cfa_offset 20
 114              		.cfi_offset 80, -20
ARM GAS  C:\Users\Marc\AppData\Local\Temp\ccffzsSK.s 			page 3


 115              		.cfi_offset 81, -16
 116 0006 204D     		ldr	r5, .L12
 117              		.loc 2 50 0
 118 0008 204C     		ldr	r4, .L12+4
 119              		.loc 2 39 0
 120 000a 2B68     		ldr	r3, [r5]
 121 000c 83B0     		sub	sp, sp, #12
 122              		.cfi_def_cfa_offset 32
 123              		.loc 2 39 0
 124 000e 0193     		str	r3, [sp, #4]
 125              		.loc 2 40 0
 126 0010 FFF7FEFF 		bl	left_motor_get_pos
 127              	.LVL5:
 128 0014 08EE100A 		vmov	s16, r0	@ int
 129              	.LVL6:
 130              		.loc 2 41 0
 131 0018 FFF7FEFF 		bl	right_motor_get_pos
 132              	.LVL7:
 133 001c 07EE100A 		vmov	s14, r0	@ int
 134              		.loc 2 40 0
 135 0020 F8EEC87A 		vcvt.f32.s32	s15, s16
 136              	.LVL8:
 137              		.loc 2 41 0
 138 0024 B8EEC70A 		vcvt.f32.s32	s0, s14
 139              	.LVL9:
 140              		.loc 2 44 0
 141 0028 194B     		ldr	r3, .L12+8
 142              		.loc 2 43 0
 143 002a 77EE807A 		vadd.f32	s15, s15, s0
 144              	.LVL10:
 145 002e B6EE000A 		vmov.f32	s0, #5.0e-1
 146              	.LVL11:
 147 0032 67EE807A 		vmul.f32	s15, s15, s0
 148              	.LVL12:
 149              		.loc 2 44 0
 150 0036 93ED000A 		vldr.32	s0, [r3]
 151              	.LVL13:
 152              		.loc 2 46 0
 153 003a C3ED007A 		vstr.32	s15, [r3]
 154              		.loc 2 48 0
 155 003e 37EEC00A 		vsub.f32	s0, s15, s0
 156              	.LVL14:
 157 0042 FFF7FEFF 		bl	steps_to_cm
 158              	.LVL15:
 159 0046 B0EE408A 		vmov.f32	s16, s0
 160              	.LVL16:
 161              		.loc 2 50 0
 162 004a 94ED020A 		vldr.32	s0, [r4, #8]
 163              	.LVL17:
 164 004e FFF7FEFF 		bl	arm_cos_f32
 165              	.LVL18:
 166 0052 D4ED007A 		vldr.32	s15, [r4]
 167 0056 E0EE087A 		vfma.f32	s15, s0, s16
 168              		.loc 2 51 0
 169 005a 94ED020A 		vldr.32	s0, [r4, #8]
 170              		.loc 2 50 0
 171 005e C4ED007A 		vstr.32	s15, [r4]
ARM GAS  C:\Users\Marc\AppData\Local\Temp\ccffzsSK.s 			page 4


 172              		.loc 2 51 0
 173 0062 FFF7FEFF 		bl	arm_sin_f32
 174              	.LVL19:
 175 0066 D4ED017A 		vldr.32	s15, [r4, #4]
 176              		.loc 2 54 0
 177 006a 019A     		ldr	r2, [sp, #4]
 178 006c 2B68     		ldr	r3, [r5]
 179              		.loc 2 51 0
 180 006e E0EE087A 		vfma.f32	s15, s0, s16
 181              		.loc 2 54 0
 182 0072 9A42     		cmp	r2, r3
 183              		.loc 2 51 0
 184 0074 C4ED017A 		vstr.32	s15, [r4, #4]
 185              		.loc 2 54 0
 186 0078 03D1     		bne	.L11
 187 007a 03B0     		add	sp, sp, #12
 188              		.cfi_remember_state
 189              		.cfi_def_cfa_offset 20
 190              		@ sp needed
 191 007c BDEC028B 		vldm	sp!, {d8}
 192              		.cfi_restore 80
 193              		.cfi_restore 81
 194              		.cfi_def_cfa_offset 12
 195              	.LVL20:
 196 0080 30BD     		pop	{r4, r5, pc}
 197              	.LVL21:
 198              	.L11:
 199              		.cfi_restore_state
 200 0082 FFF7FEFF 		bl	__stack_chk_fail
 201              	.LVL22:
 202              	.L13:
 203 0086 00BF     		.align	2
 204              	.L12:
 205 0088 00000000 		.word	__stack_chk_guard
 206 008c 00000000 		.word	.LANCHOR1
 207 0090 00000000 		.word	.LANCHOR0
 208              		.cfi_endproc
 209              	.LFE293:
 210              		.size	update_map_position, .-update_map_position
 211              		.section	.text.ThdMapping,"ax",%progbits
 212              		.align	1
 213              		.p2align 4,,15
 214              		.syntax unified
 215              		.thumb
 216              		.thumb_func
 217              		.fpu fpv4-sp-d16
 218              		.type	ThdMapping, %function
 219              	ThdMapping:
 220              	.LFB301:
 221              		.loc 2 333 0
 222              		.cfi_startproc
 223              		@ Volatile: function does not return.
 224              		@ args = 0, pretend = 0, frame = 8
 225              		@ frame_needed = 0, uses_anonymous_args = 0
 226              	.LVL23:
 227 0000 80B5     		push	{r7, lr}
 228              		.cfi_def_cfa_offset 8
ARM GAS  C:\Users\Marc\AppData\Local\Temp\ccffzsSK.s 			page 5


 229              		.cfi_offset 7, -8
 230              		.cfi_offset 14, -4
 231              	.LBB70:
 232              	.LBB71:
 233              		.file 3 "../lib/e-puck2_main-processor/ChibiOS//os/rt/include/chregistry.h"
 234              		.loc 3 135 0
 235 0002 1A4C     		ldr	r4, .L20
 236              	.LBE71:
 237              	.LBE70:
 238              		.loc 2 333 0
 239 0004 1A4B     		ldr	r3, .L20+4
 240              	.LBB74:
 241              	.LBB72:
 242              		.loc 3 135 0
 243 0006 A269     		ldr	r2, [r4, #24]
 244 0008 1A49     		ldr	r1, .L20+8
 245              	.LBE72:
 246              	.LBE74:
 247              		.loc 2 333 0
 248 000a 1B68     		ldr	r3, [r3]
 249 000c 1A4F     		ldr	r7, .L20+12
 250              	.LBB75:
 251              	.LBB76:
 252              	.LBB77:
 253              	.LBB78:
 254              		.file 4 "../lib/e-puck2_main-processor/ChibiOS//os/rt/include/chsys.h"
 255              		.loc 4 367 0
 256 000e DFF86C80 		ldr	r8, .L20+16
 257              	.LBE78:
 258              	.LBE77:
 259              	.LBE76:
 260              	.LBE75:
 261              	.LBB104:
 262              	.LBB73:
 263              		.loc 3 135 0
 264 0012 9161     		str	r1, [r2, #24]
 265              	.LBE73:
 266              	.LBE104:
 267              		.loc 2 333 0
 268 0014 82B0     		sub	sp, sp, #8
 269              		.cfi_def_cfa_offset 16
 270              	.LBB105:
 271              	.LBB101:
 272              	.LBB87:
 273              	.LBB88:
 274              	.LBB89:
 275              	.LBB90:
 276              	.LBB91:
 277              		.file 5 "../lib/e-puck2_main-processor/ChibiOS//os/ext/CMSIS/include/core_cmFunc.h"
 278              		.loc 5 546 0
 279 0016 2026     		movs	r6, #32
 280              	.LBE91:
 281              	.LBE90:
 282              	.LBE89:
 283              	.LBE88:
 284              	.LBE87:
 285              	.LBE101:
ARM GAS  C:\Users\Marc\AppData\Local\Temp\ccffzsSK.s 			page 6


 286              	.LBE105:
 287              		.loc 2 333 0
 288 0018 0193     		str	r3, [sp, #4]
 289              	.LVL24:
 290              	.LBB106:
 291              	.LBB102:
 292              	.LBB96:
 293              	.LBB85:
 294              	.LBB79:
 295              	.LBB80:
 296              	.LBB81:
 297              		.loc 5 546 0
 298 001a 0025     		movs	r5, #0
 299 001c 04E0     		b	.L17
 300              	.LVL25:
 301              	.L16:
 302              	.LBE81:
 303              	.LBE80:
 304              	.LBE79:
 305              	.LBE85:
 306              	.LBE96:
 307              	.LBE102:
 308              	.LBE106:
 309              		.loc 2 343 0
 310 001e 0098     		ldr	r0, [sp]
 311 0020 0099     		ldr	r1, [sp]
 312 0022 0231     		adds	r1, r1, #2
 313 0024 FFF7FEFF 		bl	chThdSleepUntilWindowed
 314              	.LVL26:
 315              	.L17:
 316              	.LBB107:
 317              	.LBB103:
 318              	.LBB97:
 319              	.LBB95:
 320              	.LBB94:
 321              	.LBB93:
 322              	.LBB92:
 323              		.loc 5 546 0
 324              		.syntax unified
 325              	@ 546 "../lib/e-puck2_main-processor/ChibiOS//os/ext/CMSIS/include/core_cmFunc.h" 1
 326 0028 86F31188 		MSR basepri, r6
 327              	@ 0 "" 2
 328              	.LVL27:
 329              		.thumb
 330              		.syntax unified
 331              	.LBE92:
 332              	.LBE93:
 333              	.LBE94:
 334              		.loc 4 349 0
 335 002c FFF7FEFF 		bl	_stats_start_measure_crit_thd
 336              	.LVL28:
 337              		.loc 4 350 0
 338 0030 FFF7FEFF 		bl	_dbg_check_lock
 339              	.LVL29:
 340              	.LBE95:
 341              	.LBE97:
 342              	.LBB98:
ARM GAS  C:\Users\Marc\AppData\Local\Temp\ccffzsSK.s 			page 7


 343              	.LBB99:
 344              		.file 6 "../lib/e-puck2_main-processor/ChibiOS//os/rt/include/chvt.h"
 345              		.loc 6 231 0
 346 0034 D4F82890 		ldr	r9, [r4, #40]
 347              	.LBE99:
 348              	.LBE98:
 349              	.LBB100:
 350              	.LBB86:
 351              		.loc 4 360 0
 352 0038 FFF7FEFF 		bl	_dbg_check_unlock
 353              	.LVL30:
 354              		.loc 4 361 0
 355 003c FFF7FEFF 		bl	_stats_stop_measure_crit_thd
 356              	.LVL31:
 357              		.loc 4 367 0
 358 0040 2368     		ldr	r3, [r4]
 359 0042 A342     		cmp	r3, r4
 360 0044 07D0     		beq	.L15
 361 0046 A269     		ldr	r2, [r4, #24]
 362 0048 9B68     		ldr	r3, [r3, #8]
 363 004a 9268     		ldr	r2, [r2, #8]
 364 004c 9A42     		cmp	r2, r3
 365 004e 02D2     		bcs	.L15
 366 0050 4046     		mov	r0, r8
 367 0052 FFF7FEFF 		bl	chSysHalt
 368              	.LVL32:
 369              	.L15:
 370              	.LBB84:
 371              	.LBB83:
 372              	.LBB82:
 373              		.loc 5 546 0
 374              		.syntax unified
 375              	@ 546 "../lib/e-puck2_main-processor/ChibiOS//os/ext/CMSIS/include/core_cmFunc.h" 1
 376 0056 85F31188 		MSR basepri, r5
 377              	@ 0 "" 2
 378              	.LVL33:
 379              		.thumb
 380              		.syntax unified
 381              	.LBE82:
 382              	.LBE83:
 383              	.LBE84:
 384              	.LBE86:
 385              	.LBE100:
 386              	.LBE103:
 387              	.LBE107:
 388              		.loc 2 339 0
 389 005a 3B78     		ldrb	r3, [r7]	@ zero_extendqisi2
 390              		.loc 2 338 0
 391 005c CDF80090 		str	r9, [sp]
 392              		.loc 2 339 0
 393 0060 012B     		cmp	r3, #1
 394 0062 DCD1     		bne	.L16
 395              		.loc 2 340 0
 396 0064 FFF7FEFF 		bl	update_map_position
 397              	.LVL34:
 398 0068 D9E7     		b	.L16
 399              	.L21:
ARM GAS  C:\Users\Marc\AppData\Local\Temp\ccffzsSK.s 			page 8


 400 006a 00BF     		.align	2
 401              	.L20:
 402 006c 00000000 		.word	ch
 403 0070 00000000 		.word	__stack_chk_guard
 404 0074 00000000 		.word	.LANCHOR2
 405 0078 00000000 		.word	.LANCHOR4
 406 007c 00000000 		.word	.LANCHOR3
 407              		.cfi_endproc
 408              	.LFE301:
 409              		.size	ThdMapping, .-ThdMapping
 410              		.section	.text.update_map_angle,"ax",%progbits
 411              		.align	1
 412              		.p2align 4,,15
 413              		.global	update_map_angle
 414              		.syntax unified
 415              		.thumb
 416              		.thumb_func
 417              		.fpu fpv4-sp-d16
 418              		.type	update_map_angle, %function
 419              	update_map_angle:
 420              	.LFB294:
 421              		.loc 2 62 0
 422              		.cfi_startproc
 423              		@ args = 0, pretend = 0, frame = 8
 424              		@ frame_needed = 0, uses_anonymous_args = 0
 425              	.LVL35:
 426 0000 30B5     		push	{r4, r5, lr}
 427              		.cfi_def_cfa_offset 12
 428              		.cfi_offset 4, -12
 429              		.cfi_offset 5, -8
 430              		.cfi_offset 14, -4
 431              		.loc 2 63 0
 432 0002 224C     		ldr	r4, .L34
 433              		.loc 2 62 0
 434 0004 224D     		ldr	r5, .L34+4
 435              		.loc 2 63 0
 436 0006 D4ED027A 		vldr.32	s15, [r4, #8]
 437              		.loc 2 62 0
 438 000a 2B68     		ldr	r3, [r5]
 439 000c 2DED028B 		vpush.64	{d8}
 440              		.cfi_def_cfa_offset 20
 441              		.cfi_offset 80, -20
 442              		.cfi_offset 81, -16
 443              		.loc 2 63 0
 444 0010 30EE270A 		vadd.f32	s0, s0, s15
 445              	.LVL36:
 446              		.loc 2 65 0
 447 0014 9FED1F8A 		vldr.32	s16, .L34+8
 448              		.loc 2 63 0
 449 0018 84ED020A 		vstr.32	s0, [r4, #8]
 450              		.loc 2 62 0
 451 001c 83B0     		sub	sp, sp, #12
 452              		.cfi_def_cfa_offset 32
 453              		.loc 2 65 0
 454 001e B4EEC80A 		vcmpe.f32	s0, s16
 455 0022 F1EE10FA 		vmrs	APSR_nzcv, FPSCR
 456              		.loc 2 62 0
ARM GAS  C:\Users\Marc\AppData\Local\Temp\ccffzsSK.s 			page 9


 457 0026 0193     		str	r3, [sp, #4]
 458              		.loc 2 65 0
 459 0028 0FDD     		ble	.L23
 460              		.loc 2 66 0
 461 002a DFED1B8A 		vldr.32	s17, .L34+12
 462              	.L25:
 463 002e 30EE680A 		vsub.f32	s0, s0, s17
 464              		.loc 2 67 0
 465 0032 0220     		movs	r0, #2
 466              		.loc 2 66 0
 467 0034 84ED020A 		vstr.32	s0, [r4, #8]
 468              		.loc 2 67 0
 469 0038 FFF7FEFF 		bl	chThdSleep
 470              	.LVL37:
 471              		.loc 2 65 0
 472 003c 94ED020A 		vldr.32	s0, [r4, #8]
 473 0040 B4EEC80A 		vcmpe.f32	s0, s16
 474 0044 F1EE10FA 		vmrs	APSR_nzcv, FPSCR
 475 0048 F1DC     		bgt	.L25
 476              	.L23:
 477              		.loc 2 70 0
 478 004a 9FED148A 		vldr.32	s16, .L34+16
 479 004e B4EEC80A 		vcmpe.f32	s0, s16
 480 0052 F1EE10FA 		vmrs	APSR_nzcv, FPSCR
 481 0056 0FD8     		bhi	.L22
 482              		.loc 2 71 0
 483 0058 DFED0F8A 		vldr.32	s17, .L34+12
 484              	.L28:
 485 005c 30EE280A 		vadd.f32	s0, s0, s17
 486              		.loc 2 72 0
 487 0060 0220     		movs	r0, #2
 488              		.loc 2 71 0
 489 0062 84ED020A 		vstr.32	s0, [r4, #8]
 490              		.loc 2 72 0
 491 0066 FFF7FEFF 		bl	chThdSleep
 492              	.LVL38:
 493              		.loc 2 70 0
 494 006a 94ED020A 		vldr.32	s0, [r4, #8]
 495 006e B4EEC80A 		vcmpe.f32	s0, s16
 496 0072 F1EE10FA 		vmrs	APSR_nzcv, FPSCR
 497 0076 F1D9     		bls	.L28
 498              	.L22:
 499              		.loc 2 74 0
 500 0078 019A     		ldr	r2, [sp, #4]
 501 007a 2B68     		ldr	r3, [r5]
 502 007c 9A42     		cmp	r2, r3
 503 007e 03D1     		bne	.L33
 504 0080 03B0     		add	sp, sp, #12
 505              		.cfi_remember_state
 506              		.cfi_def_cfa_offset 20
 507              		@ sp needed
 508 0082 BDEC028B 		vldm	sp!, {d8}
 509              		.cfi_restore 80
 510              		.cfi_restore 81
 511              		.cfi_def_cfa_offset 12
 512 0086 30BD     		pop	{r4, r5, pc}
 513              	.L33:
ARM GAS  C:\Users\Marc\AppData\Local\Temp\ccffzsSK.s 			page 10


 514              		.cfi_restore_state
 515 0088 FFF7FEFF 		bl	__stack_chk_fail
 516              	.LVL39:
 517              	.L35:
 518              		.align	2
 519              	.L34:
 520 008c 00000000 		.word	.LANCHOR1
 521 0090 00000000 		.word	__stack_chk_guard
 522 0094 DB0F4940 		.word	1078530011
 523 0098 DB0FC940 		.word	1086918619
 524 009c DB0F49C0 		.word	-1068953637
 525              		.cfi_endproc
 526              	.LFE294:
 527              		.size	update_map_angle, .-update_map_angle
 528              		.section	.text.postAvance_init,"ax",%progbits
 529              		.align	1
 530              		.p2align 4,,15
 531              		.global	postAvance_init
 532              		.syntax unified
 533              		.thumb
 534              		.thumb_func
 535              		.fpu fpv4-sp-d16
 536              		.type	postAvance_init, %function
 537              	postAvance_init:
 538              	.LFB295:
 539              		.loc 2 79 0
 540              		.cfi_startproc
 541              		@ args = 0, pretend = 0, frame = 8
 542              		@ frame_needed = 0, uses_anonymous_args = 0
 543 0000 10B5     		push	{r4, lr}
 544              		.cfi_def_cfa_offset 8
 545              		.cfi_offset 4, -8
 546              		.cfi_offset 14, -4
 547 0002 0A4C     		ldr	r4, .L41
 548 0004 82B0     		sub	sp, sp, #8
 549              		.cfi_def_cfa_offset 16
 550              		.loc 2 79 0
 551 0006 2368     		ldr	r3, [r4]
 552 0008 0193     		str	r3, [sp, #4]
 553              		.loc 2 81 0
 554 000a FFF7FEFF 		bl	update_map_position
 555              	.LVL40:
 556              		.loc 2 84 0
 557 000e 019A     		ldr	r2, [sp, #4]
 558 0010 2368     		ldr	r3, [r4]
 559              		.loc 2 82 0
 560 0012 0749     		ldr	r1, .L41+4
 561 0014 0020     		movs	r0, #0
 562              		.loc 2 84 0
 563 0016 9A42     		cmp	r2, r3
 564              		.loc 2 82 0
 565 0018 0860     		str	r0, [r1]	@ float
 566              		.loc 2 84 0
 567 001a 04D1     		bne	.L40
 568              		.loc 2 85 0
 569 001c 02B0     		add	sp, sp, #8
 570              		.cfi_remember_state
ARM GAS  C:\Users\Marc\AppData\Local\Temp\ccffzsSK.s 			page 11


 571              		.cfi_def_cfa_offset 8
 572              		@ sp needed
 573 001e BDE81040 		pop	{r4, lr}
 574              		.cfi_restore 14
 575              		.cfi_restore 4
 576              		.cfi_def_cfa_offset 0
 577              		.loc 2 84 0
 578 0022 FFF7FEBF 		b	motors_stop_pos
 579              	.LVL41:
 580              	.L40:
 581              		.cfi_restore_state
 582 0026 FFF7FEFF 		bl	__stack_chk_fail
 583              	.LVL42:
 584              	.L42:
 585 002a 00BF     		.align	2
 586              	.L41:
 587 002c 00000000 		.word	__stack_chk_guard
 588 0030 00000000 		.word	.LANCHOR0
 589              		.cfi_endproc
 590              	.LFE295:
 591              		.size	postAvance_init, .-postAvance_init
 592              		.section	.text.nouvel_ordre,"ax",%progbits
 593              		.align	1
 594              		.p2align 4,,15
 595              		.global	nouvel_ordre
 596              		.syntax unified
 597              		.thumb
 598              		.thumb_func
 599              		.fpu fpv4-sp-d16
 600              		.type	nouvel_ordre, %function
 601              	nouvel_ordre:
 602              	.LFB296:
 603              		.loc 2 93 0
 604              		.cfi_startproc
 605              		@ args = 0, pretend = 0, frame = 8
 606              		@ frame_needed = 0, uses_anonymous_args = 0
 607              	.LVL43:
 608 0000 70B5     		push	{r4, r5, r6, lr}
 609              		.cfi_def_cfa_offset 16
 610              		.cfi_offset 4, -16
 611              		.cfi_offset 5, -12
 612              		.cfi_offset 6, -8
 613              		.cfi_offset 14, -4
 614              		.loc 2 94 0
 615 0002 5E4D     		ldr	r5, .L83
 616              		.loc 2 93 0
 617 0004 5E4C     		ldr	r4, .L83+4
 618              		.loc 2 94 0
 619 0006 2A78     		ldrb	r2, [r5]	@ zero_extendqisi2
 620              		.loc 2 93 0
 621 0008 2368     		ldr	r3, [r4]
 622 000a 2DED028B 		vpush.64	{d8}
 623              		.cfi_def_cfa_offset 24
 624              		.cfi_offset 80, -24
 625              		.cfi_offset 81, -20
 626 000e 82B0     		sub	sp, sp, #8
 627              		.cfi_def_cfa_offset 32
ARM GAS  C:\Users\Marc\AppData\Local\Temp\ccffzsSK.s 			page 12


 628              		.loc 2 94 0
 629 0010 012A     		cmp	r2, #1
 630              		.loc 2 93 0
 631 0012 0193     		str	r3, [sp, #4]
 632 0014 0646     		mov	r6, r0
 633 0016 B0EE408A 		vmov.f32	s16, s0
 634              		.loc 2 94 0
 635 001a 34D0     		beq	.L45
 636 001c 1AD3     		bcc	.L46
 637 001e 022A     		cmp	r2, #2
 638 0020 0ED0     		beq	.L47
 639              	.L75:
 640              		.loc 2 171 0
 641 0022 0199     		ldr	r1, [sp, #4]
 642 0024 2368     		ldr	r3, [r4]
 643 0026 9942     		cmp	r1, r3
 644 0028 08BF     		it	eq
 645 002a 3346     		moveq	r3, r6
 646 002c 66D1     		bne	.L80
 647              	.LVL44:
 648              	.L79:
 649 002e 5549     		ldr	r1, .L83+8
 650 0030 5548     		ldr	r0, .L83+12
 651              		.loc 2 174 0
 652 0032 02B0     		add	sp, sp, #8
 653              		.cfi_remember_state
 654              		.cfi_def_cfa_offset 24
 655              		@ sp needed
 656 0034 BDEC028B 		vldm	sp!, {d8}
 657              		.cfi_restore 80
 658              		.cfi_restore 81
 659              		.cfi_def_cfa_offset 16
 660              	.LVL45:
 661 0038 BDE87040 		pop	{r4, r5, r6, lr}
 662              		.cfi_restore 14
 663              		.cfi_restore 6
 664              		.cfi_restore 5
 665              		.cfi_restore 4
 666              		.cfi_def_cfa_offset 0
 667              		.loc 2 171 0
 668 003c FFF7FEBF 		b	chprintf.constprop.2
 669              	.LVL46:
 670              	.L47:
 671              		.cfi_restore_state
 672              		.loc 2 157 0
 673 0040 0228     		cmp	r0, #2
 674 0042 EED8     		bhi	.L75
 675              	.LVL47:
 676              	.L43:
 677              		.loc 2 174 0
 678 0044 019A     		ldr	r2, [sp, #4]
 679 0046 2368     		ldr	r3, [r4]
 680 0048 9A42     		cmp	r2, r3
 681 004a 57D1     		bne	.L80
 682 004c 02B0     		add	sp, sp, #8
 683              		.cfi_remember_state
 684              		.cfi_def_cfa_offset 24
ARM GAS  C:\Users\Marc\AppData\Local\Temp\ccffzsSK.s 			page 13


 685              		@ sp needed
 686 004e BDEC028B 		vldm	sp!, {d8}
 687              		.cfi_restore 80
 688              		.cfi_restore 81
 689              		.cfi_def_cfa_offset 16
 690              	.LVL48:
 691 0052 70BD     		pop	{r4, r5, r6, pc}
 692              	.LVL49:
 693              	.L46:
 694              		.cfi_restore_state
 695              		.loc 2 96 0
 696 0054 0128     		cmp	r0, #1
 697 0056 3FD0     		beq	.L49
 698 0058 59D3     		bcc	.L50
 699 005a 0228     		cmp	r0, #2
 700 005c 50D1     		bne	.L81
 701              		.loc 2 107 0
 702 005e FFF7FEFF 		bl	right_motor_get_pos
 703              	.LVL50:
 704 0062 0028     		cmp	r0, #0
 705 0064 00F08480 		beq	.L56
 706              	.L58:
 707              		.loc 2 108 0
 708 0068 0223     		movs	r3, #2
 709 006a 2A78     		ldrb	r2, [r5]	@ zero_extendqisi2
 710 006c 4749     		ldr	r1, .L83+16
 711 006e 4648     		ldr	r0, .L83+12
 712 0070 FFF7FEFF 		bl	chprintf.constprop.2
 713              	.LVL51:
 714              	.L57:
 715              		.loc 2 110 0
 716 0074 0223     		movs	r3, #2
 717              		.loc 2 111 0
 718 0076 B0EE480A 		vmov.f32	s0, s16
 719              		.loc 2 110 0
 720 007a 2B70     		strb	r3, [r5]
 721              		.loc 2 111 0
 722 007c FFF7FEFF 		bl	moteurs_tourne
 723              	.LVL52:
 724              		.loc 2 112 0
 725 0080 0023     		movs	r3, #0
 726 0082 2B70     		strb	r3, [r5]
 727              		.loc 2 113 0
 728 0084 DEE7     		b	.L43
 729              	.LVL53:
 730              	.L45:
 731              		.loc 2 130 0
 732 0086 FFF7FEFF 		bl	motors_stop_speed
 733              	.LVL54:
 734              		.loc 2 131 0
 735 008a 012E     		cmp	r6, #1
 736 008c 11D0     		beq	.L66
 737 008e 5BD3     		bcc	.L67
 738 0090 022E     		cmp	r6, #2
 739 0092 52D1     		bne	.L82
 740              	.LBB108:
 741              	.LBB109:
ARM GAS  C:\Users\Marc\AppData\Local\Temp\ccffzsSK.s 			page 14


 742              		.loc 2 81 0
 743 0094 FFF7FEFF 		bl	update_map_position
 744              	.LVL55:
 745              		.loc 2 82 0
 746 0098 3D4B     		ldr	r3, .L83+20
 747 009a 0022     		movs	r2, #0
 748 009c 1A60     		str	r2, [r3]	@ float
 749              		.loc 2 84 0
 750 009e FFF7FEFF 		bl	motors_stop_pos
 751              	.LVL56:
 752              	.LBE109:
 753              	.LBE108:
 754              		.loc 2 141 0
 755 00a2 B0EE480A 		vmov.f32	s0, s16
 756              		.loc 2 140 0
 757 00a6 2E70     		strb	r6, [r5]
 758              		.loc 2 141 0
 759 00a8 FFF7FEFF 		bl	moteurs_tourne
 760              	.LVL57:
 761              		.loc 2 142 0
 762 00ac 0023     		movs	r3, #0
 763 00ae 2B70     		strb	r3, [r5]
 764              		.loc 2 143 0
 765 00b0 C8E7     		b	.L43
 766              	.L66:
 767              		.loc 2 133 0
 768 00b2 2E70     		strb	r6, [r5]
 769              	.LBB110:
 770              	.LBB111:
 771              		.loc 2 81 0
 772 00b4 FFF7FEFF 		bl	update_map_position
 773              	.LVL58:
 774              		.loc 2 82 0
 775 00b8 354B     		ldr	r3, .L83+20
 776 00ba 0022     		movs	r2, #0
 777 00bc 1A60     		str	r2, [r3]	@ float
 778              		.loc 2 84 0
 779 00be FFF7FEFF 		bl	motors_stop_pos
 780              	.LVL59:
 781              	.LBE111:
 782              	.LBE110:
 783              		.loc 2 135 0
 784 00c2 019A     		ldr	r2, [sp, #4]
 785 00c4 2368     		ldr	r3, [r4]
 786 00c6 9A42     		cmp	r2, r3
 787 00c8 18D1     		bne	.L80
 788              	.L69:
 789              		.loc 2 174 0
 790 00ca 02B0     		add	sp, sp, #8
 791              		.cfi_remember_state
 792              		.cfi_def_cfa_offset 24
 793              		@ sp needed
 794 00cc BDEC028B 		vldm	sp!, {d8}
 795              		.cfi_restore 80
 796              		.cfi_restore 81
 797              		.cfi_def_cfa_offset 16
 798              	.LVL60:
ARM GAS  C:\Users\Marc\AppData\Local\Temp\ccffzsSK.s 			page 15


 799 00d0 BDE87040 		pop	{r4, r5, r6, lr}
 800              		.cfi_restore 14
 801              		.cfi_restore 6
 802              		.cfi_restore 5
 803              		.cfi_restore 4
 804              		.cfi_def_cfa_offset 0
 805              		.loc 2 135 0
 806 00d4 FFF7FEBF 		b	moteurs_avance
 807              	.LVL61:
 808              	.L49:
 809              		.cfi_restore_state
 810              		.loc 2 98 0
 811 00d8 FFF7FEFF 		bl	right_motor_get_pos
 812              	.LVL62:
 813 00dc 0028     		cmp	r0, #0
 814 00de 3DD0     		beq	.L52
 815              	.L54:
 816              		.loc 2 99 0
 817 00e0 0123     		movs	r3, #1
 818 00e2 2A78     		ldrb	r2, [r5]	@ zero_extendqisi2
 819 00e4 2949     		ldr	r1, .L83+16
 820 00e6 2848     		ldr	r0, .L83+12
 821 00e8 FFF7FEFF 		bl	chprintf.constprop.2
 822              	.LVL63:
 823              		.loc 2 100 0
 824 00ec FFF7FEFF 		bl	motors_stop_pos
 825              	.LVL64:
 826              	.L53:
 827              		.loc 2 103 0
 828 00f0 019A     		ldr	r2, [sp, #4]
 829 00f2 2368     		ldr	r3, [r4]
 830              		.loc 2 102 0
 831 00f4 0121     		movs	r1, #1
 832              		.loc 2 103 0
 833 00f6 9A42     		cmp	r2, r3
 834              		.loc 2 102 0
 835 00f8 2970     		strb	r1, [r5]
 836              		.loc 2 103 0
 837 00fa E6D0     		beq	.L69
 838              	.L80:
 839              		.loc 2 174 0
 840 00fc FFF7FEFF 		bl	__stack_chk_fail
 841              	.LVL65:
 842              	.L81:
 843              		.loc 2 124 0
 844 0100 019A     		ldr	r2, [sp, #4]
 845 0102 2368     		ldr	r3, [r4]
 846 0104 9A42     		cmp	r2, r3
 847 0106 F9D1     		bne	.L80
 848 0108 0346     		mov	r3, r0
 849 010a 0022     		movs	r2, #0
 850 010c 8FE7     		b	.L79
 851              	.L50:
 852              		.loc 2 116 0
 853 010e FFF7FEFF 		bl	right_motor_get_pos
 854              	.LVL66:
 855 0112 40B3     		cbz	r0, .L60
ARM GAS  C:\Users\Marc\AppData\Local\Temp\ccffzsSK.s 			page 16


 856              	.L62:
 857              		.loc 2 117 0
 858 0114 0023     		movs	r3, #0
 859 0116 2A78     		ldrb	r2, [r5]	@ zero_extendqisi2
 860 0118 1C49     		ldr	r1, .L83+16
 861 011a 1B48     		ldr	r0, .L83+12
 862 011c FFF7FEFF 		bl	chprintf.constprop.2
 863              	.LVL67:
 864              	.L61:
 865              		.loc 2 120 0
 866 0120 019A     		ldr	r2, [sp, #4]
 867 0122 2368     		ldr	r3, [r4]
 868              		.loc 2 119 0
 869 0124 0021     		movs	r1, #0
 870              		.loc 2 120 0
 871 0126 9A42     		cmp	r2, r3
 872              		.loc 2 119 0
 873 0128 2970     		strb	r1, [r5]
 874              		.loc 2 120 0
 875 012a E7D1     		bne	.L80
 876              		.loc 2 174 0
 877 012c 02B0     		add	sp, sp, #8
 878              		.cfi_remember_state
 879              		.cfi_def_cfa_offset 24
 880              		@ sp needed
 881 012e BDEC028B 		vldm	sp!, {d8}
 882              		.cfi_restore 80
 883              		.cfi_restore 81
 884              		.cfi_def_cfa_offset 16
 885              	.LVL68:
 886 0132 BDE87040 		pop	{r4, r5, r6, lr}
 887              		.cfi_restore 14
 888              		.cfi_restore 6
 889              		.cfi_restore 5
 890              		.cfi_restore 4
 891              		.cfi_def_cfa_offset 0
 892              		.loc 2 120 0
 893 0136 FFF7FEBF 		b	motors_stop_pos
 894              	.LVL69:
 895              	.L82:
 896              		.cfi_restore_state
 897              		.loc 2 151 0
 898 013a 019A     		ldr	r2, [sp, #4]
 899 013c 2368     		ldr	r3, [r4]
 900 013e 9A42     		cmp	r2, r3
 901 0140 DCD1     		bne	.L80
 902 0142 3346     		mov	r3, r6
 903 0144 2A78     		ldrb	r2, [r5]	@ zero_extendqisi2
 904 0146 72E7     		b	.L79
 905              	.L67:
 906              	.LBB112:
 907              	.LBB113:
 908              		.loc 2 81 0
 909 0148 FFF7FEFF 		bl	update_map_position
 910              	.LVL70:
 911              		.loc 2 82 0
 912 014c 104B     		ldr	r3, .L83+20
ARM GAS  C:\Users\Marc\AppData\Local\Temp\ccffzsSK.s 			page 17


 913 014e 0022     		movs	r2, #0
 914 0150 1A60     		str	r2, [r3]	@ float
 915              		.loc 2 84 0
 916 0152 FFF7FEFF 		bl	motors_stop_pos
 917              	.LVL71:
 918              	.LBE113:
 919              	.LBE112:
 920              		.loc 2 147 0
 921 0156 0023     		movs	r3, #0
 922 0158 2B70     		strb	r3, [r5]
 923              		.loc 2 148 0
 924 015a 73E7     		b	.L43
 925              	.L52:
 926              		.loc 2 98 0 discriminator 1
 927 015c FFF7FEFF 		bl	left_motor_get_pos
 928              	.LVL72:
 929 0160 0028     		cmp	r0, #0
 930 0162 BDD1     		bne	.L54
 931 0164 C4E7     		b	.L53
 932              	.L60:
 933              		.loc 2 116 0 discriminator 1
 934 0166 FFF7FEFF 		bl	left_motor_get_pos
 935              	.LVL73:
 936 016a 0028     		cmp	r0, #0
 937 016c D2D1     		bne	.L62
 938 016e D7E7     		b	.L61
 939              	.L56:
 940              		.loc 2 107 0 discriminator 1
 941 0170 FFF7FEFF 		bl	left_motor_get_pos
 942              	.LVL74:
 943 0174 0028     		cmp	r0, #0
 944 0176 7FF477AF 		bne	.L58
 945 017a 7BE7     		b	.L57
 946              	.L84:
 947              		.align	2
 948              	.L83:
 949 017c 00000000 		.word	.LANCHOR4
 950 0180 00000000 		.word	__stack_chk_guard
 951 0184 38000000 		.word	.LC1
 952 0188 00000000 		.word	SD3
 953 018c 00000000 		.word	.LC0
 954 0190 00000000 		.word	.LANCHOR0
 955              		.cfi_endproc
 956              	.LFE296:
 957              		.size	nouvel_ordre, .-nouvel_ordre
 958              		.section	.text.leds_management,"ax",%progbits
 959              		.align	1
 960              		.p2align 4,,15
 961              		.global	leds_management
 962              		.syntax unified
 963              		.thumb
 964              		.thumb_func
 965              		.fpu fpv4-sp-d16
 966              		.type	leds_management, %function
 967              	leds_management:
 968              	.LFB297:
 969              		.loc 2 176 0
ARM GAS  C:\Users\Marc\AppData\Local\Temp\ccffzsSK.s 			page 18


 970              		.cfi_startproc
 971              		@ args = 0, pretend = 0, frame = 8
 972              		@ frame_needed = 0, uses_anonymous_args = 0
 973              	.LVL75:
 974 0000 30B5     		push	{r4, r5, lr}
 975              		.cfi_def_cfa_offset 12
 976              		.cfi_offset 4, -12
 977              		.cfi_offset 5, -8
 978              		.cfi_offset 14, -4
 979              		.loc 2 177 0
 980 0002 0028     		cmp	r0, #0
 981              		.loc 2 176 0
 982 0004 1248     		ldr	r0, .L97
 983              	.LVL76:
 984 0006 83B0     		sub	sp, sp, #12
 985              		.cfi_def_cfa_offset 24
 986              		.loc 2 176 0
 987 0008 0468     		ldr	r4, [r0]
 988 000a 0194     		str	r4, [sp, #4]
 989              		.loc 2 177 0
 990 000c 14BF     		ite	ne
 991 000e 4FF40015 		movne	r5, #2097152
 992 0012 2025     		moveq	r5, #32
 993              		.loc 2 178 0
 994 0014 0029     		cmp	r1, #0
 995 0016 0CBF     		ite	eq
 996 0018 4024     		moveq	r4, #64
 997 001a 4FF48004 		movne	r4, #4194304
 998              		.loc 2 179 0
 999 001e 002A     		cmp	r2, #0
 1000              		.loc 2 177 0
 1001 0020 0C49     		ldr	r1, .L97+4
 1002              	.LVL77:
 1003              		.loc 2 179 0
 1004 0022 0CBF     		ite	eq
 1005 0024 4FF48062 		moveq	r2, #1024
 1006              	.LVL78:
 1007 0028 4FF08062 		movne	r2, #67108864
 1008              		.loc 2 180 0
 1009 002c 002B     		cmp	r3, #0
 1010 002e 14BF     		ite	ne
 1011 0030 4FF00063 		movne	r3, #134217728
 1012              	.LVL79:
 1013 0034 4FF40063 		moveq	r3, #2048
 1014              		.loc 2 177 0
 1015 0038 8D61     		str	r5, [r1, #24]
 1016              		.loc 2 178 0
 1017 003a 8C61     		str	r4, [r1, #24]
 1018              		.loc 2 179 0
 1019 003c 8A61     		str	r2, [r1, #24]
 1020              		.loc 2 180 0
 1021 003e 8B61     		str	r3, [r1, #24]
 1022              		.loc 2 181 0
 1023 0040 019A     		ldr	r2, [sp, #4]
 1024 0042 0368     		ldr	r3, [r0]
 1025 0044 9A42     		cmp	r2, r3
 1026 0046 01D1     		bne	.L96
ARM GAS  C:\Users\Marc\AppData\Local\Temp\ccffzsSK.s 			page 19


 1027 0048 03B0     		add	sp, sp, #12
 1028              		.cfi_remember_state
 1029              		.cfi_def_cfa_offset 12
 1030              		@ sp needed
 1031 004a 30BD     		pop	{r4, r5, pc}
 1032              	.L96:
 1033              		.cfi_restore_state
 1034 004c FFF7FEFF 		bl	__stack_chk_fail
 1035              	.LVL80:
 1036              	.L98:
 1037              		.align	2
 1038              	.L97:
 1039 0050 00000000 		.word	__stack_chk_guard
 1040 0054 000C0240 		.word	1073875968
 1041              		.cfi_endproc
 1042              	.LFE297:
 1043              		.size	leds_management, .-leds_management
 1044              		.global	__aeabi_f2d
 1045              		.global	__aeabi_d2f
 1046              		.global	__aeabi_dsub
 1047              		.section	.text.go_home,"ax",%progbits
 1048              		.align	1
 1049              		.p2align 4,,15
 1050              		.global	go_home
 1051              		.syntax unified
 1052              		.thumb
 1053              		.thumb_func
 1054              		.fpu fpv4-sp-d16
 1055              		.type	go_home, %function
 1056              	go_home:
 1057              	.LFB298:
 1058              		.loc 2 187 0
 1059              		.cfi_startproc
 1060              		@ args = 0, pretend = 0, frame = 8
 1061              		@ frame_needed = 0, uses_anonymous_args = 0
 1062 0000 70B5     		push	{r4, r5, r6, lr}
 1063              		.cfi_def_cfa_offset 16
 1064              		.cfi_offset 4, -16
 1065              		.cfi_offset 5, -12
 1066              		.cfi_offset 6, -8
 1067              		.cfi_offset 14, -4
 1068 0002 2DED048B 		vpush.64	{d8, d9}
 1069              		.cfi_def_cfa_offset 32
 1070              		.cfi_offset 80, -32
 1071              		.cfi_offset 81, -28
 1072              		.cfi_offset 82, -24
 1073              		.cfi_offset 83, -20
 1074              		.loc 2 190 0
 1075 0006 864C     		ldr	r4, .L147+8
 1076              		.loc 2 187 0
 1077 0008 864D     		ldr	r5, .L147+12
 1078              		.loc 2 191 0
 1079 000a 94ED018A 		vldr.32	s16, [r4, #4]
 1080              		.loc 2 187 0
 1081 000e 2B68     		ldr	r3, [r5]
 1082              		.loc 2 190 0
 1083 0010 D4ED008A 		vldr.32	s17, [r4]
ARM GAS  C:\Users\Marc\AppData\Local\Temp\ccffzsSK.s 			page 20


 1084              	.LVL81:
 1085              		.loc 2 187 0
 1086 0014 82B0     		sub	sp, sp, #8
 1087              		.cfi_def_cfa_offset 40
 1088              		.loc 2 187 0
 1089 0016 0193     		str	r3, [sp, #4]
 1090              		.loc 2 193 0
 1091 0018 FFF7FEFF 		bl	motors_stop_speed
 1092              	.LVL82:
 1093              		.loc 2 199 0
 1094 001c B5EEC08A 		vcmpe.f32	s16, #0
 1095 0020 F1EE10FA 		vmrs	APSR_nzcv, FPSCR
 1096 0024 40F3F480 		ble	.L139
 1097 0028 F5EEC08A 		vcmpe.f32	s17, #0
 1098 002c F1EE10FA 		vmrs	APSR_nzcv, FPSCR
 1099 0030 94BF     		ite	ls
 1100 0032 0226     		movls	r6, #2
 1101 0034 0126     		movhi	r6, #1
 1102              	.L100:
 1103              	.LVL83:
 1104              		.loc 2 201 0
 1105 0036 B5EEC08A 		vcmpe.f32	s16, #0
 1106 003a F1EE10FA 		vmrs	APSR_nzcv, FPSCR
 1107 003e 05D8     		bhi	.L103
 1108              		.loc 2 202 0 discriminator 1
 1109 0040 F5EE408A 		vcmp.f32	s17, #0
 1110 0044 F1EE10FA 		vmrs	APSR_nzcv, FPSCR
 1111 0048 48BF     		it	mi
 1112 004a 0326     		movmi	r6, #3
 1113              	.LVL84:
 1114              	.L103:
 1115 004c 68EE087A 		vmul.f32	s15, s16, s16
 1116 0050 E8EEA87A 		vfma.f32	s15, s17, s17
 1117 0054 17EE900A 		vmov	r0, s15
 1118 0058 FFF7FEFF 		bl	__aeabi_f2d
 1119              	.LVL85:
 1120              		.loc 2 203 0
 1121 005c B5EEC08A 		vcmpe.f32	s16, #0
 1122 0060 F1EE10FA 		vmrs	APSR_nzcv, FPSCR
 1123              		.loc 2 206 0
 1124 0064 41EC100B 		vmov	d0, r0, r1
 1125              		.loc 2 203 0
 1126 0068 00F19480 		bmi	.L146
 1127              	.L105:
 1128              		.loc 2 206 0
 1129 006c FFF7FEFF 		bl	sqrt
 1130              	.LVL86:
 1131 0070 51EC100B 		vmov	r0, r1, d0
 1132 0074 FFF7FEFF 		bl	__aeabi_d2f
 1133              	.LVL87:
 1134 0078 09EE900A 		vmov	s19, r0
 1135              	.LVL88:
 1136              		.loc 2 208 0
 1137 007c F5EE409A 		vcmp.f32	s19, #0
 1138 0080 F1EE10FA 		vmrs	APSR_nzcv, FPSCR
 1139 0084 00F0B780 		beq	.L126
 1140 0088 C8EEA97A 		vdiv.f32	s15, s17, s19
ARM GAS  C:\Users\Marc\AppData\Local\Temp\ccffzsSK.s 			page 21


 1141 008c 17EE900A 		vmov	r0, s15
 1142              	.LVL89:
 1143 0090 FFF7FEFF 		bl	__aeabi_f2d
 1144              	.LVL90:
 1145              		.loc 2 213 0
 1146 0094 022E     		cmp	r6, #2
 1147              		.loc 2 218 0
 1148 0096 41EC100B 		vmov	d0, r0, r1
 1149              		.loc 2 213 0
 1150 009a 02D0     		beq	.L142
 1151 009c 032E     		cmp	r6, #3
 1152 009e 00F09480 		beq	.L143
 1153              	.L142:
 1154              		.loc 2 218 0
 1155 00a2 FFF7FEFF 		bl	acos
 1156              	.LVL91:
 1157 00a6 5CA3     		adr	r3, .L147
 1158 00a8 D3E90023 		ldrd	r2, [r3]
 1159 00ac 51EC100B 		vmov	r0, r1, d0
 1160 00b0 FFF7FEFF 		bl	__aeabi_dsub
 1161              	.LVL92:
 1162 00b4 FFF7FEFF 		bl	__aeabi_d2f
 1163              	.LVL93:
 1164 00b8 08EE100A 		vmov	s16, r0
 1165              	.LVL94:
 1166              	.L113:
 1167              		.loc 2 230 0
 1168 00bc 94ED020A 		vldr.32	s0, [r4, #8]
 1169              		.loc 2 232 0
 1170 00c0 DFED598A 		vldr.32	s17, .L147+16
 1171              	.LVL95:
 1172              		.loc 2 230 0
 1173 00c4 38EE408A 		vsub.f32	s16, s16, s0
 1174              	.LVL96:
 1175              		.loc 2 232 0
 1176 00c8 B4EEE88A 		vcmpe.f32	s16, s17
 1177 00cc F1EE10FA 		vmrs	APSR_nzcv, FPSCR
 1178 00d0 0BDD     		ble	.L114
 1179              		.loc 2 233 0
 1180 00d2 9FED569A 		vldr.32	s18, .L147+20
 1181              	.L116:
 1182 00d6 38EE498A 		vsub.f32	s16, s16, s18
 1183              	.LVL97:
 1184              		.loc 2 234 0
 1185 00da 0220     		movs	r0, #2
 1186 00dc FFF7FEFF 		bl	chThdSleep
 1187              	.LVL98:
 1188              		.loc 2 232 0
 1189 00e0 B4EEE88A 		vcmpe.f32	s16, s17
 1190 00e4 F1EE10FA 		vmrs	APSR_nzcv, FPSCR
 1191 00e8 F5DC     		bgt	.L116
 1192              	.L114:
 1193              		.loc 2 236 0
 1194 00ea DFED518A 		vldr.32	s17, .L147+24
 1195 00ee B4EEE88A 		vcmpe.f32	s16, s17
 1196 00f2 F1EE10FA 		vmrs	APSR_nzcv, FPSCR
 1197 00f6 0BD5     		bpl	.L117
ARM GAS  C:\Users\Marc\AppData\Local\Temp\ccffzsSK.s 			page 22


 1198              		.loc 2 237 0
 1199 00f8 9FED4C9A 		vldr.32	s18, .L147+20
 1200              	.L119:
 1201 00fc 38EE098A 		vadd.f32	s16, s16, s18
 1202              	.LVL99:
 1203              		.loc 2 238 0
 1204 0100 0220     		movs	r0, #2
 1205 0102 FFF7FEFF 		bl	chThdSleep
 1206              	.LVL100:
 1207              		.loc 2 236 0
 1208 0106 B4EEE88A 		vcmpe.f32	s16, s17
 1209 010a F1EE10FA 		vmrs	APSR_nzcv, FPSCR
 1210 010e F5D4     		bmi	.L119
 1211              	.L117:
 1212              		.loc 2 242 0
 1213 0110 DFED487A 		vldr.32	s15, .L147+28
 1214 0114 F4EEE79A 		vcmpe.f32	s19, s15
 1215 0118 F1EE10FA 		vmrs	APSR_nzcv, FPSCR
 1216 011c 06D5     		bpl	.L120
 1217              		.loc 2 242 0 is_stmt 0 discriminator 1
 1218 011e D4ED027A 		vldr.32	s15, [r4, #8]
 1219 0122 F5EE407A 		vcmp.f32	s15, #0
 1220 0126 F1EE10FA 		vmrs	APSR_nzcv, FPSCR
 1221 012a 5CD0     		beq	.L99
 1222              	.L120:
 1223              		.loc 2 245 0 is_stmt 1
 1224 012c B0EE480A 		vmov.f32	s0, s16
 1225 0130 0220     		movs	r0, #2
 1226 0132 FFF7FEFF 		bl	nouvel_ordre
 1227              	.LVL101:
 1228              		.loc 2 246 0
 1229 0136 9FED400A 		vldr.32	s0, .L147+32
 1230 013a 0120     		movs	r0, #1
 1231 013c FFF7FEFF 		bl	nouvel_ordre
 1232              	.LVL102:
 1233              		.loc 2 248 0
 1234 0140 3E4B     		ldr	r3, .L147+36
 1235 0142 1B78     		ldrb	r3, [r3]	@ zero_extendqisi2
 1236 0144 022B     		cmp	r3, #2
 1237 0146 03D8     		bhi	.L123
 1238              		.loc 2 248 0 is_stmt 0 discriminator 1
 1239 0148 3D4B     		ldr	r3, .L147+40
 1240 014a 1B78     		ldrb	r3, [r3]	@ zero_extendqisi2
 1241 014c 022B     		cmp	r3, #2
 1242 014e 4AD9     		bls	.L99
 1243              	.L123:
 1244              		.loc 2 249 0 is_stmt 1
 1245 0150 9FED390A 		vldr.32	s0, .L147+32
 1246 0154 0020     		movs	r0, #0
 1247 0156 FFF7FEFF 		bl	nouvel_ordre
 1248              	.LVL103:
 1249              		.loc 2 250 0
 1250 015a 3A4B     		ldr	r3, .L147+44
 1251              		.loc 2 251 0
 1252 015c F2EE081A 		vmov.f32	s3, #1.2e+1
 1253              		.loc 2 250 0
 1254 0160 0122     		movs	r2, #1
ARM GAS  C:\Users\Marc\AppData\Local\Temp\ccffzsSK.s 			page 23


 1255              		.loc 2 251 0
 1256 0162 B0EE611A 		vmov.f32	s2, s3
 1257 0166 F0EE690A 		vmov.f32	s1, s19
 1258 016a B0EE690A 		vmov.f32	s0, s19
 1259              		.loc 2 250 0
 1260 016e 1A70     		strb	r2, [r3]
 1261              		.loc 2 251 0
 1262 0170 FFF7FEFF 		bl	motors_set_position
 1263              	.LVL104:
 1264              		.loc 2 252 0
 1265 0174 019A     		ldr	r2, [sp, #4]
 1266 0176 2B68     		ldr	r3, [r5]
 1267 0178 9A42     		cmp	r2, r3
 1268 017a 4BD1     		bne	.L145
 1269 017c 94ED020A 		vldr.32	s0, [r4, #8]
 1270 0180 0220     		movs	r0, #2
 1271 0182 B1EE400A 		vneg.f32	s0, s0
 1272              		.loc 2 254 0
 1273 0186 02B0     		add	sp, sp, #8
 1274              		.cfi_remember_state
 1275              		.cfi_def_cfa_offset 32
 1276              		@ sp needed
 1277 0188 BDEC048B 		vldm	sp!, {d8-d9}
 1278              		.cfi_restore 82
 1279              		.cfi_restore 83
 1280              		.cfi_restore 80
 1281              		.cfi_restore 81
 1282              		.cfi_def_cfa_offset 16
 1283              	.LVL105:
 1284 018c BDE87040 		pop	{r4, r5, r6, lr}
 1285              		.cfi_restore 14
 1286              		.cfi_restore 6
 1287              		.cfi_restore 5
 1288              		.cfi_restore 4
 1289              		.cfi_def_cfa_offset 0
 1290              		.loc 2 252 0
 1291 0190 FFF7FEBF 		b	nouvel_ordre
 1292              	.LVL106:
 1293              	.L146:
 1294              		.cfi_restore_state
 1295              		.loc 2 203 0 discriminator 1
 1296 0194 F5EEC08A 		vcmpe.f32	s17, #0
 1297 0198 F1EE10FA 		vmrs	APSR_nzcv, FPSCR
 1298 019c FFF666AF 		blt	.L105
 1299              	.LVL107:
 1300              		.loc 2 206 0
 1301 01a0 FFF7FEFF 		bl	sqrt
 1302              	.LVL108:
 1303 01a4 51EC100B 		vmov	r0, r1, d0
 1304 01a8 FFF7FEFF 		bl	__aeabi_d2f
 1305              	.LVL109:
 1306 01ac 09EE900A 		vmov	s19, r0
 1307              	.LVL110:
 1308              		.loc 2 208 0
 1309 01b0 F5EE409A 		vcmp.f32	s19, #0
 1310 01b4 F1EE10FA 		vmrs	APSR_nzcv, FPSCR
 1311 01b8 1DD0     		beq	.L126
ARM GAS  C:\Users\Marc\AppData\Local\Temp\ccffzsSK.s 			page 24


 1312              		.loc 2 224 0
 1313 01ba C8EEA97A 		vdiv.f32	s15, s17, s19
 1314 01be 17EE900A 		vmov	r0, s15
 1315              	.LVL111:
 1316 01c2 FFF7FEFF 		bl	__aeabi_f2d
 1317              	.LVL112:
 1318 01c6 41EC100B 		vmov	d0, r0, r1
 1319              	.LVL113:
 1320              	.L143:
 1321 01ca FFF7FEFF 		bl	acos
 1322              	.LVL114:
 1323 01ce 12A1     		adr	r1, .L147
 1324 01d0 D1E90001 		ldrd	r0, [r1]
 1325 01d4 53EC102B 		vmov	r2, r3, d0
 1326 01d8 FFF7FEFF 		bl	__aeabi_dsub
 1327              	.LVL115:
 1328 01dc FFF7FEFF 		bl	__aeabi_d2f
 1329              	.LVL116:
 1330 01e0 08EE100A 		vmov	s16, r0
 1331              	.LVL117:
 1332              		.loc 2 225 0
 1333 01e4 6AE7     		b	.L113
 1334              	.LVL118:
 1335              	.L99:
 1336              		.loc 2 254 0
 1337 01e6 019A     		ldr	r2, [sp, #4]
 1338 01e8 2B68     		ldr	r3, [r5]
 1339 01ea 9A42     		cmp	r2, r3
 1340 01ec 12D1     		bne	.L145
 1341 01ee 02B0     		add	sp, sp, #8
 1342              		.cfi_remember_state
 1343              		.cfi_def_cfa_offset 32
 1344              		@ sp needed
 1345 01f0 BDEC048B 		vldm	sp!, {d8-d9}
 1346              		.cfi_restore 82
 1347              		.cfi_restore 83
 1348              		.cfi_restore 80
 1349              		.cfi_restore 81
 1350              		.cfi_def_cfa_offset 16
 1351              	.LVL119:
 1352 01f4 70BD     		pop	{r4, r5, r6, pc}
 1353              	.LVL120:
 1354              	.L126:
 1355              		.cfi_restore_state
 1356              		.loc 2 209 0
 1357 01f6 019A     		ldr	r2, [sp, #4]
 1358 01f8 2B68     		ldr	r3, [r5]
 1359 01fa 9A42     		cmp	r2, r3
 1360 01fc 0AD1     		bne	.L145
 1361 01fe 1249     		ldr	r1, .L147+48
 1362 0200 1248     		ldr	r0, .L147+52
 1363              	.LVL121:
 1364              		.loc 2 254 0
 1365 0202 02B0     		add	sp, sp, #8
 1366              		.cfi_remember_state
 1367              		.cfi_def_cfa_offset 32
 1368              		@ sp needed
ARM GAS  C:\Users\Marc\AppData\Local\Temp\ccffzsSK.s 			page 25


 1369 0204 BDEC048B 		vldm	sp!, {d8-d9}
 1370              		.cfi_restore 82
 1371              		.cfi_restore 83
 1372              		.cfi_restore 80
 1373              		.cfi_restore 81
 1374              		.cfi_def_cfa_offset 16
 1375              	.LVL122:
 1376 0208 BDE87040 		pop	{r4, r5, r6, lr}
 1377              		.cfi_restore 14
 1378              		.cfi_restore 6
 1379              		.cfi_restore 5
 1380              		.cfi_restore 4
 1381              		.cfi_def_cfa_offset 0
 1382              		.loc 2 209 0
 1383 020c FFF7FEBF 		b	chprintf.constprop.2
 1384              	.LVL123:
 1385              	.L139:
 1386              		.cfi_restore_state
 1387 0210 0126     		movs	r6, #1
 1388 0212 10E7     		b	.L100
 1389              	.LVL124:
 1390              	.L145:
 1391              		.loc 2 254 0
 1392 0214 FFF7FEFF 		bl	__stack_chk_fail
 1393              	.LVL125:
 1394              	.L148:
 1395              		.align	3
 1396              	.L147:
 1397 0218 00000060 		.word	1610612736
 1398 021c FB210940 		.word	1074340347
 1399 0220 00000000 		.word	.LANCHOR1
 1400 0224 00000000 		.word	__stack_chk_guard
 1401 0228 DB0F4940 		.word	1078530011
 1402 022c DB0FC940 		.word	1086918619
 1403 0230 DB0F49C0 		.word	-1068953637
 1404 0234 CDCCCC3D 		.word	1036831949
 1405 0238 00000000 		.word	0
 1406 023c 00000000 		.word	.LANCHOR5
 1407 0240 00000000 		.word	.LANCHOR6
 1408 0244 00000000 		.word	.LANCHOR4
 1409 0248 00000000 		.word	.LC2
 1410 024c 00000000 		.word	SD3
 1411              		.cfi_endproc
 1412              	.LFE298:
 1413              		.size	go_home, .-go_home
 1414              		.section	.text.boite_virtuelle,"ax",%progbits
 1415              		.align	1
 1416              		.p2align 4,,15
 1417              		.global	boite_virtuelle
 1418              		.syntax unified
 1419              		.thumb
 1420              		.thumb_func
 1421              		.fpu fpv4-sp-d16
 1422              		.type	boite_virtuelle, %function
 1423              	boite_virtuelle:
 1424              	.LFB299:
 1425              		.loc 2 260 0
ARM GAS  C:\Users\Marc\AppData\Local\Temp\ccffzsSK.s 			page 26


 1426              		.cfi_startproc
 1427              		@ args = 0, pretend = 0, frame = 8
 1428              		@ frame_needed = 0, uses_anonymous_args = 0
 1429 0000 30B5     		push	{r4, r5, lr}
 1430              		.cfi_def_cfa_offset 12
 1431              		.cfi_offset 4, -12
 1432              		.cfi_offset 5, -8
 1433              		.cfi_offset 14, -4
 1434              		.loc 2 261 0
 1435 0002 414C     		ldr	r4, .L184
 1436              		.loc 2 260 0
 1437 0004 414D     		ldr	r5, .L184+4
 1438              		.loc 2 261 0
 1439 0006 D4ED017A 		vldr.32	s15, [r4, #4]
 1440              		.loc 2 260 0
 1441 000a 2B68     		ldr	r3, [r5]
 1442              		.loc 2 261 0
 1443 000c B3EE047A 		vmov.f32	s14, #2.0e+1
 1444              		.loc 2 260 0
 1445 0010 83B0     		sub	sp, sp, #12
 1446              		.cfi_def_cfa_offset 24
 1447              		.loc 2 261 0
 1448 0012 F4EEC77A 		vcmpe.f32	s15, s14
 1449 0016 F1EE10FA 		vmrs	APSR_nzcv, FPSCR
 1450              		.loc 2 260 0
 1451 001a 0193     		str	r3, [sp, #4]
 1452              		.loc 2 261 0
 1453 001c 29DD     		ble	.L150
 1454              		.loc 2 262 0
 1455 001e 94ED020A 		vldr.32	s0, [r4, #8]
 1456 0022 B5EEC00A 		vcmpe.f32	s0, #0
 1457 0026 F1EE10FA 		vmrs	APSR_nzcv, FPSCR
 1458 002a 06DD     		ble	.L152
 1459              		.loc 2 262 0 is_stmt 0 discriminator 1
 1460 002c 9FED387A 		vldr.32	s14, .L184+8
 1461 0030 B4EEC70A 		vcmpe.f32	s0, s14
 1462 0034 F1EE10FA 		vmrs	APSR_nzcv, FPSCR
 1463 0038 5DD9     		bls	.L181
 1464              	.L152:
 1465              		.loc 2 265 0 is_stmt 1
 1466 003a 9FED357A 		vldr.32	s14, .L184+8
 1467 003e B4EEC70A 		vcmpe.f32	s0, s14
 1468 0042 F1EE10FA 		vmrs	APSR_nzcv, FPSCR
 1469 0046 14DD     		ble	.L150
 1470              		.loc 2 265 0 is_stmt 0 discriminator 1
 1471 0048 9FED327A 		vldr.32	s14, .L184+12
 1472 004c B4EEC70A 		vcmpe.f32	s0, s14
 1473 0050 F1EE10FA 		vmrs	APSR_nzcv, FPSCR
 1474 0054 0DD8     		bhi	.L150
 1475              		.loc 2 266 0 is_stmt 1
 1476 0056 37EE400A 		vsub.f32	s0, s14, s0
 1477 005a 0220     		movs	r0, #2
 1478 005c 30EE000A 		vadd.f32	s0, s0, s0
 1479              	.L178:
 1480 0060 FFF7FEFF 		bl	nouvel_ordre
 1481              	.LVL126:
 1482              		.loc 2 267 0
ARM GAS  C:\Users\Marc\AppData\Local\Temp\ccffzsSK.s 			page 27


 1483 0064 9FED2C0A 		vldr.32	s0, .L184+16
 1484 0068 0120     		movs	r0, #1
 1485 006a FFF7FEFF 		bl	nouvel_ordre
 1486              	.LVL127:
 1487 006e D4ED017A 		vldr.32	s15, [r4, #4]
 1488              	.L150:
 1489              		.loc 2 271 0
 1490 0072 BBEE047A 		vmov.f32	s14, #-2.0e+1
 1491 0076 F4EEC77A 		vcmpe.f32	s15, s14
 1492 007a F1EE10FA 		vmrs	APSR_nzcv, FPSCR
 1493 007e 14D5     		bpl	.L149
 1494              	.LBB116:
 1495              	.LBB117:
 1496              		.loc 2 272 0
 1497 0080 94ED020A 		vldr.32	s0, [r4, #8]
 1498 0084 B5EEC00A 		vcmpe.f32	s0, #0
 1499 0088 F1EE10FA 		vmrs	APSR_nzcv, FPSCR
 1500 008c 13D4     		bmi	.L182
 1501              	.L159:
 1502              		.loc 2 275 0
 1503 008e DFED237A 		vldr.32	s15, .L184+20
 1504 0092 B4EEE70A 		vcmpe.f32	s0, s15
 1505 0096 F1EE10FA 		vmrs	APSR_nzcv, FPSCR
 1506 009a 06D5     		bpl	.L149
 1507 009c DFED207A 		vldr.32	s15, .L184+24
 1508 00a0 B4EEE70A 		vcmpe.f32	s0, s15
 1509 00a4 F1EE10FA 		vmrs	APSR_nzcv, FPSCR
 1510 00a8 1FDC     		bgt	.L183
 1511              	.L149:
 1512              	.LBE117:
 1513              	.LBE116:
 1514              		.loc 2 280 0
 1515 00aa 019A     		ldr	r2, [sp, #4]
 1516 00ac 2B68     		ldr	r3, [r5]
 1517 00ae 9A42     		cmp	r2, r3
 1518 00b0 27D1     		bne	.L179
 1519 00b2 03B0     		add	sp, sp, #12
 1520              		.cfi_remember_state
 1521              		.cfi_def_cfa_offset 12
 1522              		@ sp needed
 1523 00b4 30BD     		pop	{r4, r5, pc}
 1524              	.L182:
 1525              		.cfi_restore_state
 1526              	.LBB120:
 1527              	.LBB118:
 1528              		.loc 2 272 0
 1529 00b6 DFED197A 		vldr.32	s15, .L184+20
 1530 00ba B4EEE70A 		vcmpe.f32	s0, s15
 1531 00be F1EE10FA 		vmrs	APSR_nzcv, FPSCR
 1532 00c2 E4DB     		blt	.L159
 1533              		.loc 2 273 0
 1534 00c4 F8EE007A 		vmov.f32	s15, #-2.0e+0
 1535 00c8 20EE270A 		vmul.f32	s0, s0, s15
 1536 00cc 0220     		movs	r0, #2
 1537              	.L180:
 1538              		.loc 2 276 0
 1539 00ce FFF7FEFF 		bl	nouvel_ordre
ARM GAS  C:\Users\Marc\AppData\Local\Temp\ccffzsSK.s 			page 28


 1540              	.LVL128:
 1541              		.loc 2 277 0
 1542 00d2 019A     		ldr	r2, [sp, #4]
 1543 00d4 2B68     		ldr	r3, [r5]
 1544 00d6 9A42     		cmp	r2, r3
 1545 00d8 13D1     		bne	.L179
 1546 00da 9FED0F0A 		vldr.32	s0, .L184+16
 1547 00de 0120     		movs	r0, #1
 1548              	.LBE118:
 1549              	.LBE120:
 1550              		.loc 2 280 0
 1551 00e0 03B0     		add	sp, sp, #12
 1552              		.cfi_remember_state
 1553              		.cfi_def_cfa_offset 12
 1554              		@ sp needed
 1555 00e2 BDE83040 		pop	{r4, r5, lr}
 1556              		.cfi_restore 14
 1557              		.cfi_restore 5
 1558              		.cfi_restore 4
 1559              		.cfi_def_cfa_offset 0
 1560              	.LBB121:
 1561              	.LBB119:
 1562              		.loc 2 277 0
 1563 00e6 FFF7FEBF 		b	nouvel_ordre
 1564              	.LVL129:
 1565              	.L183:
 1566              		.cfi_restore_state
 1567              		.loc 2 276 0
 1568 00ea 37EEC00A 		vsub.f32	s0, s15, s0
 1569 00ee 0220     		movs	r0, #2
 1570 00f0 30EE000A 		vadd.f32	s0, s0, s0
 1571 00f4 EBE7     		b	.L180
 1572              	.L181:
 1573              	.LBE119:
 1574              	.LBE121:
 1575              		.loc 2 263 0
 1576 00f6 F8EE007A 		vmov.f32	s15, #-2.0e+0
 1577 00fa 20EE270A 		vmul.f32	s0, s0, s15
 1578 00fe 0220     		movs	r0, #2
 1579 0100 AEE7     		b	.L178
 1580              	.L179:
 1581              		.loc 2 280 0
 1582 0102 FFF7FEFF 		bl	__stack_chk_fail
 1583              	.LVL130:
 1584              	.L185:
 1585 0106 00BF     		.align	2
 1586              	.L184:
 1587 0108 00000000 		.word	.LANCHOR1
 1588 010c 00000000 		.word	__stack_chk_guard
 1589 0110 DB0FC93F 		.word	1070141403
 1590 0114 DB0F4940 		.word	1078530011
 1591 0118 00000000 		.word	0
 1592 011c DB0FC9BF 		.word	-1077342245
 1593 0120 DB0F49C0 		.word	-1068953637
 1594              		.cfi_endproc
 1595              	.LFE299:
 1596              		.size	boite_virtuelle, .-boite_virtuelle
ARM GAS  C:\Users\Marc\AppData\Local\Temp\ccffzsSK.s 			page 29


 1597              		.section	.text.sortie_gagnant,"ax",%progbits
 1598              		.align	1
 1599              		.p2align 4,,15
 1600              		.global	sortie_gagnant
 1601              		.syntax unified
 1602              		.thumb
 1603              		.thumb_func
 1604              		.fpu fpv4-sp-d16
 1605              		.type	sortie_gagnant, %function
 1606              	sortie_gagnant:
 1607              	.LFB300:
 1608              		.loc 2 285 0
 1609              		.cfi_startproc
 1610              		@ args = 0, pretend = 0, frame = 8
 1611              		@ frame_needed = 0, uses_anonymous_args = 0
 1612 0000 F0B5     		push	{r4, r5, r6, r7, lr}
 1613              		.cfi_def_cfa_offset 20
 1614              		.cfi_offset 4, -20
 1615              		.cfi_offset 5, -16
 1616              		.cfi_offset 6, -12
 1617              		.cfi_offset 7, -8
 1618              		.cfi_offset 14, -4
 1619              		.loc 2 286 0
 1620 0002 404B     		ldr	r3, .L217
 1621 0004 9FED407A 		vldr.32	s14, .L217+4
 1622 0008 D3ED007A 		vldr.32	s15, [r3]
 1623              		.loc 2 285 0
 1624 000c 3F4E     		ldr	r6, .L217+8
 1625 000e 83B0     		sub	sp, sp, #12
 1626              		.cfi_def_cfa_offset 32
 1627              		.loc 2 286 0
 1628 0010 F4EEC77A 		vcmpe.f32	s15, s14
 1629              		.loc 2 285 0
 1630 0014 3368     		ldr	r3, [r6]
 1631 0016 0193     		str	r3, [sp, #4]
 1632              		.loc 2 286 0
 1633 0018 F1EE10FA 		vmrs	APSR_nzcv, FPSCR
 1634 001c 4AD4     		bmi	.L187
 1635              		.loc 2 286 0 is_stmt 0 discriminator 1
 1636 001e DFED3C6A 		vldr.32	s13, .L217+12
 1637 0022 F4EEE67A 		vcmpe.f32	s15, s13
 1638 0026 F1EE10FA 		vmrs	APSR_nzcv, FPSCR
 1639 002a 3DDD     		ble	.L186
 1640 002c 394D     		ldr	r5, .L217+16
 1641              		.loc 2 288 0 is_stmt 1
 1642 002e F4EEC77A 		vcmpe.f32	s15, s14
 1643 0032 F1EE10FA 		vmrs	APSR_nzcv, FPSCR
 1644 0036 2B78     		ldrb	r3, [r5]	@ zero_extendqisi2
 1645 0038 60D9     		bls	.L213
 1646              	.L198:
 1647              		.loc 2 292 0
 1648 003a 3749     		ldr	r1, .L217+20
 1649 003c 0A78     		ldrb	r2, [r1]	@ zero_extendqisi2
 1650              		.loc 2 296 0
 1651 003e 022B     		cmp	r3, #2
 1652              		.loc 2 292 0
 1653 0040 02F10102 		add	r2, r2, #1
ARM GAS  C:\Users\Marc\AppData\Local\Temp\ccffzsSK.s 			page 30


 1654 0044 0A70     		strb	r2, [r1]
 1655              		.loc 2 296 0
 1656 0046 43D8     		bhi	.L214
 1657              	.L192:
 1658              	.LBB127:
 1659              	.LBB128:
 1660              		.loc 2 304 0
 1661 0048 334F     		ldr	r7, .L217+20
 1662 004a 3B78     		ldrb	r3, [r7]	@ zero_extendqisi2
 1663 004c 022B     		cmp	r3, #2
 1664 004e 42D8     		bhi	.L215
 1665              		.loc 2 314 0
 1666 0050 FFF7FEFF 		bl	go_home
 1667              	.LVL131:
 1668              	.LBB129:
 1669              		.loc 2 317 0
 1670 0054 2B78     		ldrb	r3, [r5]	@ zero_extendqisi2
 1671 0056 93B1     		cbz	r3, .L195
 1672 0058 0024     		movs	r4, #0
 1673              	.LVL132:
 1674              	.L196:
 1675              		.loc 2 318 0
 1676 005a 0121     		movs	r1, #1
 1677 005c 0846     		mov	r0, r1
 1678 005e FFF7FEFF 		bl	set_led
 1679              	.LVL133:
 1680              		.loc 2 319 0
 1681 0062 6420     		movs	r0, #100
 1682 0064 FFF7FEFF 		bl	chThdSleep
 1683              	.LVL134:
 1684              		.loc 2 320 0
 1685 0068 0021     		movs	r1, #0
 1686 006a 0120     		movs	r0, #1
 1687 006c FFF7FEFF 		bl	set_led
 1688              	.LVL135:
 1689              		.loc 2 321 0
 1690 0070 6420     		movs	r0, #100
 1691 0072 FFF7FEFF 		bl	chThdSleep
 1692              	.LVL136:
 1693              		.loc 2 317 0
 1694 0076 2B78     		ldrb	r3, [r5]	@ zero_extendqisi2
 1695 0078 0134     		adds	r4, r4, #1
 1696              	.LVL137:
 1697 007a 9C42     		cmp	r4, r3
 1698 007c EDDB     		blt	.L196
 1699              	.LVL138:
 1700              	.L195:
 1701              	.LBE129:
 1702              	.LBB130:
 1703              		.loc 2 323 0
 1704 007e 3B78     		ldrb	r3, [r7]	@ zero_extendqisi2
 1705 0080 93B1     		cbz	r3, .L186
 1706 0082 0024     		movs	r4, #0
 1707              	.LVL139:
 1708              	.L197:
 1709              		.loc 2 324 0
 1710 0084 0121     		movs	r1, #1
ARM GAS  C:\Users\Marc\AppData\Local\Temp\ccffzsSK.s 			page 31


 1711 0086 0320     		movs	r0, #3
 1712 0088 FFF7FEFF 		bl	set_led
 1713              	.LVL140:
 1714              		.loc 2 325 0
 1715 008c 6420     		movs	r0, #100
 1716 008e FFF7FEFF 		bl	chThdSleep
 1717              	.LVL141:
 1718              		.loc 2 326 0
 1719 0092 0021     		movs	r1, #0
 1720 0094 0320     		movs	r0, #3
 1721 0096 FFF7FEFF 		bl	set_led
 1722              	.LVL142:
 1723              		.loc 2 327 0
 1724 009a 6420     		movs	r0, #100
 1725 009c FFF7FEFF 		bl	chThdSleep
 1726              	.LVL143:
 1727              		.loc 2 323 0
 1728 00a0 3B78     		ldrb	r3, [r7]	@ zero_extendqisi2
 1729 00a2 0134     		adds	r4, r4, #1
 1730              	.LVL144:
 1731 00a4 9C42     		cmp	r4, r3
 1732 00a6 EDDB     		blt	.L197
 1733              	.LVL145:
 1734              	.L186:
 1735              	.LBE130:
 1736              	.LBE128:
 1737              	.LBE127:
 1738              		.loc 2 330 0
 1739 00a8 019A     		ldr	r2, [sp, #4]
 1740 00aa 3368     		ldr	r3, [r6]
 1741 00ac 9A42     		cmp	r2, r3
 1742 00ae 23D1     		bne	.L216
 1743 00b0 03B0     		add	sp, sp, #12
 1744              		.cfi_remember_state
 1745              		.cfi_def_cfa_offset 20
 1746              		@ sp needed
 1747 00b2 F0BD     		pop	{r4, r5, r6, r7, pc}
 1748              	.L187:
 1749              		.cfi_restore_state
 1750              		.loc 2 289 0
 1751 00b4 174D     		ldr	r5, .L217+16
 1752              		.loc 2 291 0
 1753 00b6 9FED167A 		vldr.32	s14, .L217+12
 1754              		.loc 2 289 0
 1755 00ba 2B78     		ldrb	r3, [r5]	@ zero_extendqisi2
 1756              		.loc 2 291 0
 1757 00bc F4EEC77A 		vcmpe.f32	s15, s14
 1758              		.loc 2 289 0
 1759 00c0 0133     		adds	r3, r3, #1
 1760 00c2 DBB2     		uxtb	r3, r3
 1761              		.loc 2 291 0
 1762 00c4 F1EE10FA 		vmrs	APSR_nzcv, FPSCR
 1763              		.loc 2 289 0
 1764 00c8 2B70     		strb	r3, [r5]
 1765              		.loc 2 291 0
 1766 00ca B6DA     		bge	.L198
 1767              		.loc 2 296 0
ARM GAS  C:\Users\Marc\AppData\Local\Temp\ccffzsSK.s 			page 32


 1768 00cc 022B     		cmp	r3, #2
 1769 00ce BBD9     		bls	.L192
 1770              	.L214:
 1771              		.loc 2 297 0
 1772 00d0 0121     		movs	r1, #1
 1773 00d2 0846     		mov	r0, r1
 1774 00d4 01E0     		b	.L211
 1775              	.L215:
 1776              	.LBB132:
 1777              	.LBB131:
 1778              		.loc 2 305 0
 1779 00d6 0121     		movs	r1, #1
 1780 00d8 0320     		movs	r0, #3
 1781              	.L211:
 1782 00da FFF7FEFF 		bl	set_led
 1783              	.LVL146:
 1784              		.loc 2 306 0
 1785 00de 0120     		movs	r0, #1
 1786 00e0 FFF7FEFF 		bl	set_body_led
 1787              	.LVL147:
 1788              		.loc 2 307 0
 1789 00e4 FFF7FEFF 		bl	go_home
 1790              	.LVL148:
 1791              		.loc 2 308 0
 1792 00e8 4FF47A70 		mov	r0, #1000
 1793 00ec FFF7FEFF 		bl	chThdSleep
 1794              	.LVL149:
 1795              		.loc 2 309 0
 1796 00f0 0A4B     		ldr	r3, .L217+24
 1797 00f2 0622     		movs	r2, #6
 1798 00f4 1A70     		strb	r2, [r3]
 1799 00f6 D7E7     		b	.L186
 1800              	.L216:
 1801              	.LBE131:
 1802              	.LBE132:
 1803              		.loc 2 330 0
 1804 00f8 FFF7FEFF 		bl	__stack_chk_fail
 1805              	.LVL150:
 1806              	.L213:
 1807              		.loc 2 289 0
 1808 00fc 0133     		adds	r3, r3, #1
 1809 00fe DBB2     		uxtb	r3, r3
 1810 0100 2B70     		strb	r3, [r5]
 1811 0102 9AE7     		b	.L198
 1812              	.L218:
 1813              		.align	2
 1814              	.L217:
 1815 0104 00000000 		.word	.LANCHOR1
 1816 0108 00000CC2 		.word	-1039400960
 1817 010c 00000000 		.word	__stack_chk_guard
 1818 0110 00000C42 		.word	1108082688
 1819 0114 00000000 		.word	.LANCHOR5
 1820 0118 00000000 		.word	.LANCHOR6
 1821 011c 00000000 		.word	.LANCHOR7
 1822              		.cfi_endproc
 1823              	.LFE300:
 1824              		.size	sortie_gagnant, .-sortie_gagnant
ARM GAS  C:\Users\Marc\AppData\Local\Temp\ccffzsSK.s 			page 33


 1825              		.section	.text.leds_update,"ax",%progbits
 1826              		.align	1
 1827              		.p2align 4,,15
 1828              		.global	leds_update
 1829              		.syntax unified
 1830              		.thumb
 1831              		.thumb_func
 1832              		.fpu fpv4-sp-d16
 1833              		.type	leds_update, %function
 1834              	leds_update:
 1835              	.LFB302:
 1836              		.loc 2 353 0
 1837              		.cfi_startproc
 1838              		@ args = 0, pretend = 0, frame = 8
 1839              		@ frame_needed = 0, uses_anonymous_args = 0
 1840              	.LVL151:
 1841 0000 00B5     		push	{lr}
 1842              		.cfi_def_cfa_offset 4
 1843              		.cfi_offset 14, -4
 1844 0002 1E4B     		ldr	r3, .L234
 1845              		.loc 2 355 0
 1846 0004 0278     		ldrb	r2, [r0]	@ zero_extendqisi2
 1847              		.loc 2 353 0
 1848 0006 1968     		ldr	r1, [r3]
 1849 0008 83B0     		sub	sp, sp, #12
 1850              		.cfi_def_cfa_offset 16
 1851              		.loc 2 353 0
 1852 000a 0191     		str	r1, [sp, #4]
 1853              		.loc 2 355 0
 1854 000c E2B1     		cbz	r2, .L220
 1855              		.loc 2 355 0 is_stmt 0 discriminator 1
 1856 000e 1C4A     		ldr	r2, .L234+4
 1857 0010 4FF40011 		mov	r1, #2097152
 1858 0014 9161     		str	r1, [r2, #24]
 1859              		.loc 2 356 0 is_stmt 1 discriminator 1
 1860 0016 4278     		ldrb	r2, [r0, #1]	@ zero_extendqisi2
 1861 0018 E2B1     		cbz	r2, .L222
 1862              	.L232:
 1863 001a 194A     		ldr	r2, .L234+4
 1864 001c 4FF48001 		mov	r1, #4194304
 1865 0020 9161     		str	r1, [r2, #24]
 1866              		.loc 2 357 0 discriminator 1
 1867 0022 8278     		ldrb	r2, [r0, #2]	@ zero_extendqisi2
 1868 0024 E2B1     		cbz	r2, .L224
 1869              	.L233:
 1870 0026 164A     		ldr	r2, .L234+4
 1871 0028 4FF08061 		mov	r1, #67108864
 1872 002c 9161     		str	r1, [r2, #24]
 1873              		.loc 2 358 0 discriminator 1
 1874 002e C278     		ldrb	r2, [r0, #3]	@ zero_extendqisi2
 1875 0030 EAB9     		cbnz	r2, .L230
 1876              	.L226:
 1877              		.loc 2 358 0 is_stmt 0 discriminator 2
 1878 0032 134A     		ldr	r2, .L234+4
 1879 0034 4FF40061 		mov	r1, #2048
 1880 0038 9161     		str	r1, [r2, #24]
 1881              	.L219:
ARM GAS  C:\Users\Marc\AppData\Local\Temp\ccffzsSK.s 			page 34


 1882              		.loc 2 359 0 is_stmt 1
 1883 003a 019A     		ldr	r2, [sp, #4]
 1884 003c 1B68     		ldr	r3, [r3]
 1885 003e 9A42     		cmp	r2, r3
 1886 0040 1AD1     		bne	.L231
 1887 0042 03B0     		add	sp, sp, #12
 1888              		.cfi_remember_state
 1889              		.cfi_def_cfa_offset 4
 1890              		@ sp needed
 1891 0044 5DF804FB 		ldr	pc, [sp], #4
 1892              	.L220:
 1893              		.cfi_restore_state
 1894              		.loc 2 355 0 discriminator 2
 1895 0048 0D4A     		ldr	r2, .L234+4
 1896 004a 2021     		movs	r1, #32
 1897 004c 9161     		str	r1, [r2, #24]
 1898              		.loc 2 356 0 discriminator 2
 1899 004e 4278     		ldrb	r2, [r0, #1]	@ zero_extendqisi2
 1900 0050 002A     		cmp	r2, #0
 1901 0052 E2D1     		bne	.L232
 1902              	.L222:
 1903 0054 0A4A     		ldr	r2, .L234+4
 1904 0056 4021     		movs	r1, #64
 1905 0058 9161     		str	r1, [r2, #24]
 1906              		.loc 2 357 0 discriminator 2
 1907 005a 8278     		ldrb	r2, [r0, #2]	@ zero_extendqisi2
 1908 005c 002A     		cmp	r2, #0
 1909 005e E2D1     		bne	.L233
 1910              	.L224:
 1911 0060 074A     		ldr	r2, .L234+4
 1912 0062 4FF48061 		mov	r1, #1024
 1913 0066 9161     		str	r1, [r2, #24]
 1914              		.loc 2 358 0 discriminator 2
 1915 0068 C278     		ldrb	r2, [r0, #3]	@ zero_extendqisi2
 1916 006a 002A     		cmp	r2, #0
 1917 006c E1D0     		beq	.L226
 1918              	.L230:
 1919              		.loc 2 358 0 is_stmt 0 discriminator 1
 1920 006e 044A     		ldr	r2, .L234+4
 1921 0070 4FF00061 		mov	r1, #134217728
 1922 0074 9161     		str	r1, [r2, #24]
 1923 0076 E0E7     		b	.L219
 1924              	.L231:
 1925              		.loc 2 359 0 is_stmt 1
 1926 0078 FFF7FEFF 		bl	__stack_chk_fail
 1927              	.LVL152:
 1928              	.L235:
 1929              		.align	2
 1930              	.L234:
 1931 007c 00000000 		.word	__stack_chk_guard
 1932 0080 000C0240 		.word	1073875968
 1933              		.cfi_endproc
 1934              	.LFE302:
 1935              		.size	leds_update, .-leds_update
 1936              		.section	.text.management,"ax",%progbits
 1937              		.align	1
 1938              		.p2align 4,,15
ARM GAS  C:\Users\Marc\AppData\Local\Temp\ccffzsSK.s 			page 35


 1939              		.global	management
 1940              		.syntax unified
 1941              		.thumb
 1942              		.thumb_func
 1943              		.fpu fpv4-sp-d16
 1944              		.type	management, %function
 1945              	management:
 1946              	.LFB303:
 1947              		.loc 2 361 0
 1948              		.cfi_startproc
 1949              		@ args = 0, pretend = 0, frame = 8
 1950              		@ frame_needed = 0, uses_anonymous_args = 0
 1951 0000 F0B5     		push	{r4, r5, r6, r7, lr}
 1952              		.cfi_def_cfa_offset 20
 1953              		.cfi_offset 4, -20
 1954              		.cfi_offset 5, -16
 1955              		.cfi_offset 6, -12
 1956              		.cfi_offset 7, -8
 1957              		.cfi_offset 14, -4
 1958 0002 2DED028B 		vpush.64	{d8}
 1959              		.cfi_def_cfa_offset 28
 1960              		.cfi_offset 80, -28
 1961              		.cfi_offset 81, -24
 1962              		.loc 2 364 0
 1963 0006 8A4D     		ldr	r5, .L284
 1964              		.loc 2 361 0
 1965 0008 8A4C     		ldr	r4, .L284+4
 1966              		.loc 2 364 0
 1967 000a 2B78     		ldrb	r3, [r5]	@ zero_extendqisi2
 1968              		.loc 2 361 0
 1969 000c 2268     		ldr	r2, [r4]
 1970 000e 83B0     		sub	sp, sp, #12
 1971              		.cfi_def_cfa_offset 40
 1972              		.loc 2 361 0
 1973 0010 0192     		str	r2, [sp, #4]
 1974              		.loc 2 364 0
 1975 0012 062B     		cmp	r3, #6
 1976 0014 19D8     		bhi	.L236
 1977 0016 DFE803F0 		tbb	[pc, r3]
 1978              	.L239:
 1979 001a 04       		.byte	(.L238-.L239)/2
 1980 001b 4E       		.byte	(.L240-.L239)/2
 1981 001c 69       		.byte	(.L241-.L239)/2
 1982 001d 92       		.byte	(.L242-.L239)/2
 1983 001e A9       		.byte	(.L243-.L239)/2
 1984 001f BF       		.byte	(.L244-.L239)/2
 1985 0020 21       		.byte	(.L245-.L239)/2
 1986 0021 00       		.p2align 1
 1987              	.L238:
 1988              		.loc 2 366 0
 1989 0022 854B     		ldr	r3, .L284+8
 1990 0024 1A78     		ldrb	r2, [r3]	@ zero_extendqisi2
 1991 0026 5AB1     		cbz	r2, .L262
 1992              	.LVL153:
 1993              	.LBB133:
 1994              	.LBB134:
 1995              		.loc 2 177 0
ARM GAS  C:\Users\Marc\AppData\Local\Temp\ccffzsSK.s 			page 36


 1996 0028 844A     		ldr	r2, .L284+12
 1997 002a 4FF40010 		mov	r0, #2097152
 1998              		.loc 2 178 0
 1999 002e 4021     		movs	r1, #64
 2000              	.LVL154:
 2001              	.L280:
 2002              	.LBE134:
 2003              	.LBE133:
 2004              	.LBB135:
 2005              	.LBB136:
 2006              		.loc 2 177 0
 2007 0030 9061     		str	r0, [r2, #24]
 2008              		.loc 2 178 0
 2009 0032 9161     		str	r1, [r2, #24]
 2010              		.loc 2 179 0
 2011 0034 4FF48060 		mov	r0, #1024
 2012              		.loc 2 180 0
 2013 0038 4FF40061 		mov	r1, #2048
 2014              		.loc 2 179 0
 2015 003c 9061     		str	r0, [r2, #24]
 2016              		.loc 2 180 0
 2017 003e 9161     		str	r1, [r2, #24]
 2018              	.L262:
 2019              	.LBE136:
 2020              	.LBE135:
 2021              		.loc 2 468 0
 2022 0040 7F49     		ldr	r1, .L284+16
 2023              		.loc 2 467 0
 2024 0042 0022     		movs	r2, #0
 2025              		.loc 2 468 0
 2026 0044 0978     		ldrb	r1, [r1]	@ zero_extendqisi2
 2027 0046 2970     		strb	r1, [r5]
 2028              		.loc 2 467 0
 2029 0048 1A70     		strb	r2, [r3]
 2030              	.L236:
 2031              		.loc 2 488 0
 2032 004a 019A     		ldr	r2, [sp, #4]
 2033 004c 2368     		ldr	r3, [r4]
 2034 004e 9A42     		cmp	r2, r3
 2035 0050 40F0EB80 		bne	.L281
 2036 0054 03B0     		add	sp, sp, #12
 2037              		.cfi_remember_state
 2038              		.cfi_def_cfa_offset 28
 2039              		@ sp needed
 2040 0056 BDEC028B 		vldm	sp!, {d8}
 2041              		.cfi_restore 80
 2042              		.cfi_restore 81
 2043              		.cfi_def_cfa_offset 20
 2044 005a F0BD     		pop	{r4, r5, r6, r7, pc}
 2045              	.L245:
 2046              		.cfi_restore_state
 2047              		.loc 2 472 0
 2048 005c 9FED798A 		vldr.32	s16, .L284+20
 2049 0060 0020     		movs	r0, #0
 2050 0062 B0EE480A 		vmov.f32	s0, s16
 2051 0066 FFF7FEFF 		bl	nouvel_ordre
 2052              	.LVL155:
ARM GAS  C:\Users\Marc\AppData\Local\Temp\ccffzsSK.s 			page 37


 2053              		.loc 2 476 0
 2054 006a 0026     		movs	r6, #0
 2055              		.loc 2 473 0
 2056 006c 764B     		ldr	r3, .L284+24
 2057              		.loc 2 476 0
 2058 006e 7749     		ldr	r1, .L284+28
 2059              		.loc 2 477 0
 2060 0070 774A     		ldr	r2, .L284+32
 2061              		.loc 2 473 0
 2062 0072 83ED008A 		vstr.32	s16, [r3]
 2063              		.loc 2 478 0
 2064 0076 3046     		mov	r0, r6
 2065              		.loc 2 474 0
 2066 0078 83ED018A 		vstr.32	s16, [r3, #4]
 2067              		.loc 2 475 0
 2068 007c 83ED028A 		vstr.32	s16, [r3, #8]
 2069              		.loc 2 476 0
 2070 0080 0E70     		strb	r6, [r1]
 2071              		.loc 2 477 0
 2072 0082 1670     		strb	r6, [r2]
 2073              		.loc 2 478 0
 2074 0084 FFF7FEFF 		bl	set_front_led
 2075              	.LVL156:
 2076              		.loc 2 479 0
 2077 0088 3046     		mov	r0, r6
 2078 008a FFF7FEFF 		bl	set_body_led
 2079              	.LVL157:
 2080              	.LBB138:
 2081              	.LBB139:
 2082              		.loc 2 177 0
 2083 008e 6B4B     		ldr	r3, .L284+12
 2084              	.LBE139:
 2085              	.LBE138:
 2086              		.loc 2 481 0
 2087 0090 7048     		ldr	r0, .L284+36
 2088              		.loc 2 484 0
 2089 0092 6B49     		ldr	r1, .L284+16
 2090              		.loc 2 482 0
 2091 0094 684A     		ldr	r2, .L284+8
 2092              	.LBB141:
 2093              	.LBB140:
 2094              		.loc 2 177 0
 2095 0096 2027     		movs	r7, #32
 2096 0098 9F61     		str	r7, [r3, #24]
 2097              		.loc 2 178 0
 2098 009a 4027     		movs	r7, #64
 2099 009c 9F61     		str	r7, [r3, #24]
 2100              		.loc 2 179 0
 2101 009e 4FF48067 		mov	r7, #1024
 2102 00a2 9F61     		str	r7, [r3, #24]
 2103              		.loc 2 180 0
 2104 00a4 4FF40067 		mov	r7, #2048
 2105 00a8 9F61     		str	r7, [r3, #24]
 2106              	.LVL158:
 2107              	.LBE140:
 2108              	.LBE141:
 2109              		.loc 2 482 0
ARM GAS  C:\Users\Marc\AppData\Local\Temp\ccffzsSK.s 			page 38


 2110 00aa 0123     		movs	r3, #1
 2111              		.loc 2 485 0
 2112 00ac 2E70     		strb	r6, [r5]
 2113              		.loc 2 481 0
 2114 00ae 0670     		strb	r6, [r0]
 2115              		.loc 2 484 0
 2116 00b0 0E70     		strb	r6, [r1]
 2117              		.loc 2 482 0
 2118 00b2 1370     		strb	r3, [r2]
 2119              		.loc 2 488 0
 2120 00b4 C9E7     		b	.L236
 2121              	.L240:
 2122              		.loc 2 374 0
 2123 00b6 FFF7FEFF 		bl	calibrate_ir
 2124              	.LVL159:
 2125              	.LBB142:
 2126              	.LBB143:
 2127              		.loc 2 177 0
 2128 00ba 604B     		ldr	r3, .L284+12
 2129              	.LBE143:
 2130              	.LBE142:
 2131              		.loc 2 376 0
 2132 00bc 9FED610A 		vldr.32	s0, .L284+20
 2133              	.LBB146:
 2134              	.LBB144:
 2135              		.loc 2 177 0
 2136 00c0 4FF40012 		mov	r2, #2097152
 2137 00c4 9A61     		str	r2, [r3, #24]
 2138              		.loc 2 179 0
 2139 00c6 4FF08061 		mov	r1, #67108864
 2140              		.loc 2 180 0
 2141 00ca 4FF40062 		mov	r2, #2048
 2142              		.loc 2 178 0
 2143 00ce 4020     		movs	r0, #64
 2144 00d0 9861     		str	r0, [r3, #24]
 2145              		.loc 2 179 0
 2146 00d2 9961     		str	r1, [r3, #24]
 2147              	.LBE144:
 2148              	.LBE146:
 2149              		.loc 2 376 0
 2150 00d4 0120     		movs	r0, #1
 2151              	.LBB147:
 2152              	.LBB145:
 2153              		.loc 2 180 0
 2154 00d6 9A61     		str	r2, [r3, #24]
 2155              	.LVL160:
 2156              	.LBE145:
 2157              	.LBE147:
 2158              		.loc 2 376 0
 2159 00d8 FFF7FEFF 		bl	nouvel_ordre
 2160              	.LVL161:
 2161              		.loc 2 377 0
 2162 00dc 5649     		ldr	r1, .L284+8
 2163              		.loc 2 379 0
 2164 00de 584A     		ldr	r2, .L284+16
 2165              		.loc 2 378 0
 2166 00e0 0223     		movs	r3, #2
ARM GAS  C:\Users\Marc\AppData\Local\Temp\ccffzsSK.s 			page 39


 2167              		.loc 2 377 0
 2168 00e2 0120     		movs	r0, #1
 2169 00e4 0870     		strb	r0, [r1]
 2170              		.loc 2 379 0
 2171 00e6 1370     		strb	r3, [r2]
 2172              		.loc 2 378 0
 2173 00e8 2B70     		strb	r3, [r5]
 2174              		.loc 2 380 0
 2175 00ea AEE7     		b	.L236
 2176              	.L241:
 2177              		.loc 2 383 0
 2178 00ec 524B     		ldr	r3, .L284+8
 2179 00ee 1A78     		ldrb	r2, [r3]	@ zero_extendqisi2
 2180 00f0 52B1     		cbz	r2, .L247
 2181              	.LVL162:
 2182              	.LBB148:
 2183              	.LBB149:
 2184              		.loc 2 177 0
 2185 00f2 524A     		ldr	r2, .L284+12
 2186 00f4 2020     		movs	r0, #32
 2187              		.loc 2 178 0
 2188 00f6 4021     		movs	r1, #64
 2189              		.loc 2 177 0
 2190 00f8 9061     		str	r0, [r2, #24]
 2191              		.loc 2 178 0
 2192 00fa 9161     		str	r1, [r2, #24]
 2193              		.loc 2 179 0
 2194 00fc 4FF08060 		mov	r0, #67108864
 2195              		.loc 2 180 0
 2196 0100 4FF40061 		mov	r1, #2048
 2197              		.loc 2 179 0
 2198 0104 9061     		str	r0, [r2, #24]
 2199              		.loc 2 180 0
 2200 0106 9161     		str	r1, [r2, #24]
 2201              	.LVL163:
 2202              	.L247:
 2203              	.LBE149:
 2204              	.LBE148:
 2205              		.loc 2 386 0
 2206 0108 0022     		movs	r2, #0
 2207 010a 1A70     		strb	r2, [r3]
 2208              		.loc 2 388 0
 2209 010c FFF7FEFF 		bl	sortie_gagnant
 2210              	.LVL164:
 2211              		.loc 2 389 0
 2212 0110 FFF7FEFF 		bl	boite_virtuelle
 2213              	.LVL165:
 2214              		.loc 2 391 0
 2215 0114 FFF7FEFF 		bl	obstacle_demi_tour
 2216              	.LVL166:
 2217 0118 0028     		cmp	r0, #0
 2218 011a 7BD1     		bne	.L282
 2219              	.L248:
 2220              		.loc 2 396 0
 2221 011c FFF7FEFF 		bl	close_line
 2222              	.LVL167:
 2223 0120 0128     		cmp	r0, #1
ARM GAS  C:\Users\Marc\AppData\Local\Temp\ccffzsSK.s 			page 40


 2224 0122 0646     		mov	r6, r0
 2225 0124 6BD0     		beq	.L250
 2226 0126 0228     		cmp	r0, #2
 2227 0128 1CD1     		bne	.L253
 2228              		.loc 2 404 0
 2229 012a 9FED4B0A 		vldr.32	s0, .L284+40
 2230 012e FFF7FEFF 		bl	nouvel_ordre
 2231              	.LVL168:
 2232              		.loc 2 405 0
 2233 0132 9FED440A 		vldr.32	s0, .L284+20
 2234 0136 0120     		movs	r0, #1
 2235 0138 FFF7FEFF 		bl	nouvel_ordre
 2236              	.LVL169:
 2237              		.loc 2 406 0
 2238 013c 12E0     		b	.L253
 2239              	.L242:
 2240              		.loc 2 414 0
 2241 013e 454E     		ldr	r6, .L284+36
 2242 0140 3378     		ldrb	r3, [r6]	@ zero_extendqisi2
 2243 0142 63B9     		cbnz	r3, .L252
 2244              	.LVL170:
 2245              	.LBB150:
 2246              	.LBB151:
 2247              		.loc 2 177 0
 2248 0144 3D4B     		ldr	r3, .L284+12
 2249 0146 2022     		movs	r2, #32
 2250 0148 9A61     		str	r2, [r3, #24]
 2251              		.loc 2 178 0
 2252 014a 4021     		movs	r1, #64
 2253              		.loc 2 179 0
 2254 014c 4FF48062 		mov	r2, #1024
 2255              		.loc 2 178 0
 2256 0150 9961     		str	r1, [r3, #24]
 2257              		.loc 2 179 0
 2258 0152 9A61     		str	r2, [r3, #24]
 2259              		.loc 2 180 0
 2260 0154 4FF00061 		mov	r1, #134217728
 2261              	.LBE151:
 2262              	.LBE150:
 2263              		.loc 2 416 0
 2264 0158 0722     		movs	r2, #7
 2265              	.LBB153:
 2266              	.LBB152:
 2267              		.loc 2 180 0
 2268 015a 9961     		str	r1, [r3, #24]
 2269              	.LVL171:
 2270              	.LBE152:
 2271              	.LBE153:
 2272              		.loc 2 416 0
 2273 015c 3270     		strb	r2, [r6]
 2274              	.L252:
 2275              		.loc 2 419 0
 2276 015e FFF7FEFF 		bl	letter_ready
 2277              	.LVL172:
 2278 0162 18BB     		cbnz	r0, .L283
 2279              	.L253:
 2280              		.loc 2 450 0
ARM GAS  C:\Users\Marc\AppData\Local\Temp\ccffzsSK.s 			page 41


 2281 0164 364B     		ldr	r3, .L284+16
 2282 0166 1B78     		ldrb	r3, [r3]	@ zero_extendqisi2
 2283 0168 2B70     		strb	r3, [r5]
 2284              		.loc 2 451 0
 2285 016a 6EE7     		b	.L236
 2286              	.L243:
 2287              		.loc 2 456 0
 2288 016c 0123     		movs	r3, #1
 2289 016e 324A     		ldr	r2, .L284+8
 2290              		.loc 2 457 0
 2291 0170 1846     		mov	r0, r3
 2292              		.loc 2 456 0
 2293 0172 1370     		strb	r3, [r2]
 2294              		.loc 2 457 0
 2295 0174 FFF7FEFF 		bl	set_body_led
 2296              	.LVL173:
 2297              	.LBB154:
 2298              	.LBB155:
 2299              		.loc 2 177 0
 2300 0178 304B     		ldr	r3, .L284+12
 2301              	.LBE155:
 2302              	.LBE154:
 2303              		.loc 2 460 0
 2304 017a 3149     		ldr	r1, .L284+16
 2305              	.LBB158:
 2306              	.LBB156:
 2307              		.loc 2 177 0
 2308 017c 2022     		movs	r2, #32
 2309 017e 9A61     		str	r2, [r3, #24]
 2310              		.loc 2 178 0
 2311 0180 4020     		movs	r0, #64
 2312              		.loc 2 179 0
 2313 0182 4FF48062 		mov	r2, #1024
 2314              		.loc 2 178 0
 2315 0186 9861     		str	r0, [r3, #24]
 2316              		.loc 2 179 0
 2317 0188 9A61     		str	r2, [r3, #24]
 2318              		.loc 2 180 0
 2319 018a 4FF00060 		mov	r0, #134217728
 2320              	.LBE156:
 2321              	.LBE158:
 2322              		.loc 2 459 0
 2323 018e 0522     		movs	r2, #5
 2324              	.LBB159:
 2325              	.LBB157:
 2326              		.loc 2 180 0
 2327 0190 9861     		str	r0, [r3, #24]
 2328              	.LVL174:
 2329              	.LBE157:
 2330              	.LBE159:
 2331              		.loc 2 460 0
 2332 0192 0A70     		strb	r2, [r1]
 2333              		.loc 2 459 0
 2334 0194 2A70     		strb	r2, [r5]
 2335              		.loc 2 461 0
 2336 0196 58E7     		b	.L236
 2337              	.L244:
ARM GAS  C:\Users\Marc\AppData\Local\Temp\ccffzsSK.s 			page 42


 2338              		.loc 2 464 0
 2339 0198 274B     		ldr	r3, .L284+8
 2340 019a 1A78     		ldrb	r2, [r3]	@ zero_extendqisi2
 2341 019c 002A     		cmp	r2, #0
 2342 019e 3FF44FAF 		beq	.L262
 2343              	.LVL175:
 2344              	.LBB160:
 2345              	.LBB137:
 2346              		.loc 2 177 0
 2347 01a2 264A     		ldr	r2, .L284+12
 2348 01a4 2020     		movs	r0, #32
 2349              		.loc 2 178 0
 2350 01a6 4FF48001 		mov	r1, #4194304
 2351 01aa 41E7     		b	.L280
 2352              	.LVL176:
 2353              	.L283:
 2354              	.LBE137:
 2355              	.LBE160:
 2356              		.loc 2 420 0
 2357 01ac FFF7FEFF 		bl	get_letter_state
 2358              	.LVL177:
 2359              		.loc 2 421 0
 2360 01b0 431E     		subs	r3, r0, #1
 2361              		.loc 2 420 0
 2362 01b2 3070     		strb	r0, [r6]
 2363              		.loc 2 421 0
 2364 01b4 052B     		cmp	r3, #5
 2365 01b6 06D8     		bhi	.L254
 2366 01b8 DFE803F0 		tbb	[pc, r3]
 2367              	.L256:
 2368 01bc 17       		.byte	(.L255-.L256)/2
 2369 01bd 12       		.byte	(.L257-.L256)/2
 2370 01be 0D       		.byte	(.L258-.L256)/2
 2371 01bf 08       		.byte	(.L259-.L256)/2
 2372 01c0 1C       		.byte	(.L260-.L256)/2
 2373 01c1 03       		.byte	(.L261-.L256)/2
 2374              		.p2align 1
 2375              	.L261:
 2376              		.loc 2 443 0
 2377 01c2 FFF7FEFF 		bl	ecriture_eliot
 2378              	.LVL178:
 2379              	.L254:
 2380              		.loc 2 448 0
 2381 01c6 FFF7FEFF 		bl	next_letter
 2382              	.LVL179:
 2383 01ca CBE7     		b	.L253
 2384              	.L259:
 2385              		.loc 2 435 0
 2386 01cc FFF7FEFF 		bl	lettre_D
 2387              	.LVL180:
 2388              		.loc 2 436 0
 2389 01d0 FFF7FEFF 		bl	decalage_interlettre
 2390              	.LVL181:
 2391              		.loc 2 437 0
 2392 01d4 F7E7     		b	.L254
 2393              	.L258:
 2394              		.loc 2 431 0
ARM GAS  C:\Users\Marc\AppData\Local\Temp\ccffzsSK.s 			page 43


 2395 01d6 FFF7FEFF 		bl	lettre_N
 2396              	.LVL182:
 2397              		.loc 2 432 0
 2398 01da FFF7FEFF 		bl	decalage_interlettre
 2399              	.LVL183:
 2400              		.loc 2 433 0
 2401 01de F2E7     		b	.L254
 2402              	.L257:
 2403              		.loc 2 427 0
 2404 01e0 FFF7FEFF 		bl	lettre_O
 2405              	.LVL184:
 2406              		.loc 2 428 0
 2407 01e4 FFF7FEFF 		bl	decalage_interlettre
 2408              	.LVL185:
 2409              		.loc 2 429 0
 2410 01e8 EDE7     		b	.L254
 2411              	.L255:
 2412              		.loc 2 423 0
 2413 01ea FFF7FEFF 		bl	lettre_M
 2414              	.LVL186:
 2415              		.loc 2 424 0
 2416 01ee FFF7FEFF 		bl	decalage_interlettre
 2417              	.LVL187:
 2418              		.loc 2 425 0
 2419 01f2 E8E7     		b	.L254
 2420              	.L260:
 2421              		.loc 2 439 0
 2422 01f4 FFF7FEFF 		bl	lettre_A
 2423              	.LVL188:
 2424              		.loc 2 440 0
 2425 01f8 FFF7FEFF 		bl	decalage_interlettre
 2426              	.LVL189:
 2427              		.loc 2 441 0
 2428 01fc E3E7     		b	.L254
 2429              	.L250:
 2430              		.loc 2 400 0
 2431 01fe 9FED170A 		vldr.32	s0, .L284+44
 2432 0202 0220     		movs	r0, #2
 2433 0204 FFF7FEFF 		bl	nouvel_ordre
 2434              	.LVL190:
 2435              		.loc 2 401 0
 2436 0208 3046     		mov	r0, r6
 2437 020a 9FED0E0A 		vldr.32	s0, .L284+20
 2438 020e FFF7FEFF 		bl	nouvel_ordre
 2439              	.LVL191:
 2440              		.loc 2 402 0
 2441 0212 A7E7     		b	.L253
 2442              	.L282:
 2443              		.loc 2 392 0
 2444 0214 9FED120A 		vldr.32	s0, .L284+48
 2445 0218 0220     		movs	r0, #2
 2446 021a FFF7FEFF 		bl	nouvel_ordre
 2447              	.LVL192:
 2448              		.loc 2 393 0
 2449 021e 9FED090A 		vldr.32	s0, .L284+20
 2450 0222 0120     		movs	r0, #1
 2451 0224 FFF7FEFF 		bl	nouvel_ordre
ARM GAS  C:\Users\Marc\AppData\Local\Temp\ccffzsSK.s 			page 44


 2452              	.LVL193:
 2453 0228 78E7     		b	.L248
 2454              	.L281:
 2455              		.loc 2 488 0
 2456 022a FFF7FEFF 		bl	__stack_chk_fail
 2457              	.LVL194:
 2458              	.L285:
 2459 022e 00BF     		.align	2
 2460              	.L284:
 2461 0230 00000000 		.word	.LANCHOR8
 2462 0234 00000000 		.word	__stack_chk_guard
 2463 0238 00000000 		.word	.LANCHOR9
 2464 023c 000C0240 		.word	1073875968
 2465 0240 00000000 		.word	.LANCHOR7
 2466 0244 00000000 		.word	0
 2467 0248 00000000 		.word	.LANCHOR1
 2468 024c 00000000 		.word	.LANCHOR6
 2469 0250 00000000 		.word	.LANCHOR5
 2470 0254 00000000 		.word	.LANCHOR10
 2471 0258 E4CB16C0 		.word	-1072247836
 2472 025c E4CB1640 		.word	1075235812
 2473 0260 DB0F4940 		.word	1078530011
 2474              		.cfi_endproc
 2475              	.LFE303:
 2476              		.size	management, .-management
 2477              		.section	.text.mapping_start,"ax",%progbits
 2478              		.align	1
 2479              		.p2align 4,,15
 2480              		.global	mapping_start
 2481              		.syntax unified
 2482              		.thumb
 2483              		.thumb_func
 2484              		.fpu fpv4-sp-d16
 2485              		.type	mapping_start, %function
 2486              	mapping_start:
 2487              	.LFB304:
 2488              		.loc 2 490 0
 2489              		.cfi_startproc
 2490              		@ args = 0, pretend = 0, frame = 8
 2491              		@ frame_needed = 0, uses_anonymous_args = 0
 2492 0000 10B5     		push	{r4, lr}
 2493              		.cfi_def_cfa_offset 8
 2494              		.cfi_offset 4, -8
 2495              		.cfi_offset 14, -4
 2496 0002 0A4C     		ldr	r4, .L290
 2497              		.loc 2 491 0
 2498 0004 0A4B     		ldr	r3, .L290+4
 2499              		.loc 2 490 0
 2500 0006 2268     		ldr	r2, [r4]
 2501              		.loc 2 491 0
 2502 0008 0A48     		ldr	r0, .L290+8
 2503              		.loc 2 490 0
 2504 000a 84B0     		sub	sp, sp, #16
 2505              		.cfi_def_cfa_offset 24
 2506              		.loc 2 491 0
 2507 000c 4FF47A71 		mov	r1, #1000
 2508              		.loc 2 490 0
ARM GAS  C:\Users\Marc\AppData\Local\Temp\ccffzsSK.s 			page 45


 2509 0010 0392     		str	r2, [sp, #12]
 2510              		.loc 2 491 0
 2511 0012 0022     		movs	r2, #0
 2512 0014 0092     		str	r2, [sp]
 2513 0016 4022     		movs	r2, #64
 2514 0018 FFF7FEFF 		bl	chThdCreateStatic
 2515              	.LVL195:
 2516              		.loc 2 492 0
 2517 001c 039A     		ldr	r2, [sp, #12]
 2518 001e 2368     		ldr	r3, [r4]
 2519 0020 9A42     		cmp	r2, r3
 2520 0022 01D1     		bne	.L289
 2521 0024 04B0     		add	sp, sp, #16
 2522              		.cfi_remember_state
 2523              		.cfi_def_cfa_offset 8
 2524              		@ sp needed
 2525 0026 10BD     		pop	{r4, pc}
 2526              	.L289:
 2527              		.cfi_restore_state
 2528 0028 FFF7FEFF 		bl	__stack_chk_fail
 2529              	.LVL196:
 2530              	.L291:
 2531              		.align	2
 2532              	.L290:
 2533 002c 00000000 		.word	__stack_chk_guard
 2534 0030 00000000 		.word	ThdMapping
 2535 0034 00000000 		.word	.LANCHOR11
 2536              		.cfi_endproc
 2537              	.LFE304:
 2538              		.size	mapping_start, .-mapping_start
 2539              		.section	.text.state_compare,"ax",%progbits
 2540              		.align	1
 2541              		.p2align 4,,15
 2542              		.global	state_compare
 2543              		.syntax unified
 2544              		.thumb
 2545              		.thumb_func
 2546              		.fpu fpv4-sp-d16
 2547              		.type	state_compare, %function
 2548              	state_compare:
 2549              	.LFB305:
 2550              		.loc 2 494 0
 2551              		.cfi_startproc
 2552              		@ args = 0, pretend = 0, frame = 8
 2553              		@ frame_needed = 0, uses_anonymous_args = 0
 2554              	.LVL197:
 2555 0000 70B5     		push	{r4, r5, r6, lr}
 2556              		.cfi_def_cfa_offset 16
 2557              		.cfi_offset 4, -16
 2558              		.cfi_offset 5, -12
 2559              		.cfi_offset 6, -8
 2560              		.cfi_offset 14, -4
 2561 0002 1F4D     		ldr	r5, .L316
 2562              		.loc 2 495 0
 2563 0004 1F4E     		ldr	r6, .L316+4
 2564              		.loc 2 494 0
 2565 0006 2B68     		ldr	r3, [r5]
ARM GAS  C:\Users\Marc\AppData\Local\Temp\ccffzsSK.s 			page 46


 2566              		.loc 2 495 0
 2567 0008 3278     		ldrb	r2, [r6]	@ zero_extendqisi2
 2568 000a 1F49     		ldr	r1, .L316+8
 2569              		.loc 2 494 0
 2570 000c 82B0     		sub	sp, sp, #8
 2571              		.cfi_def_cfa_offset 24
 2572              		.loc 2 494 0
 2573 000e 0446     		mov	r4, r0
 2574 0010 0193     		str	r3, [sp, #4]
 2575              		.loc 2 495 0
 2576 0012 0346     		mov	r3, r0
 2577 0014 1D48     		ldr	r0, .L316+12
 2578              	.LVL198:
 2579 0016 FFF7FEFF 		bl	chprintf.constprop.2
 2580              	.LVL199:
 2581              		.loc 2 496 0
 2582 001a 3378     		ldrb	r3, [r6]	@ zero_extendqisi2
 2583 001c 052B     		cmp	r3, #5
 2584 001e 09D8     		bhi	.L292
 2585 0020 DFE803F0 		tbb	[pc, r3]
 2586              	.L295:
 2587 0024 0E       		.byte	(.L294-.L295)/2
 2588 0025 08       		.byte	(.L292-.L295)/2
 2589 0026 03       		.byte	(.L298-.L295)/2
 2590 0027 03       		.byte	(.L298-.L295)/2
 2591 0028 08       		.byte	(.L292-.L295)/2
 2592 0029 03       		.byte	(.L298-.L295)/2
 2593              		.p2align 1
 2594              	.L298:
 2595              		.loc 2 537 0
 2596 002a 062C     		cmp	r4, #6
 2597 002c 02D1     		bne	.L292
 2598              	.L303:
 2599              		.loc 2 509 0
 2600 002e 184B     		ldr	r3, .L316+16
 2601 0030 0622     		movs	r2, #6
 2602 0032 1A70     		strb	r2, [r3]
 2603              	.L292:
 2604              		.loc 2 549 0
 2605 0034 019A     		ldr	r2, [sp, #4]
 2606 0036 2B68     		ldr	r3, [r5]
 2607 0038 9A42     		cmp	r2, r3
 2608 003a 1FD1     		bne	.L315
 2609 003c 02B0     		add	sp, sp, #8
 2610              		.cfi_remember_state
 2611              		.cfi_def_cfa_offset 16
 2612              		@ sp needed
 2613 003e 70BD     		pop	{r4, r5, r6, pc}
 2614              	.L294:
 2615              		.cfi_restore_state
 2616              		.loc 2 498 0
 2617 0040 013C     		subs	r4, r4, #1
 2618 0042 052C     		cmp	r4, #5
 2619 0044 F6D8     		bhi	.L292
 2620 0046 01A3     		adr	r3, .L300
 2621 0048 53F824F0 		ldr	pc, [r3, r4, lsl #2]
 2622              		.p2align 2
ARM GAS  C:\Users\Marc\AppData\Local\Temp\ccffzsSK.s 			page 47


 2623              	.L300:
 2624 004c 6D000000 		.word	.L299+1
 2625 0050 35000000 		.word	.L292+1
 2626 0054 75000000 		.word	.L301+1
 2627 0058 65000000 		.word	.L302+1
 2628 005c 35000000 		.word	.L292+1
 2629 0060 2F000000 		.word	.L303+1
 2630              		.p2align 1
 2631              	.L302:
 2632              		.loc 2 506 0
 2633 0064 0A4B     		ldr	r3, .L316+16
 2634 0066 0422     		movs	r2, #4
 2635 0068 1A70     		strb	r2, [r3]
 2636              		.loc 2 507 0
 2637 006a E3E7     		b	.L292
 2638              	.L299:
 2639              		.loc 2 500 0
 2640 006c 084B     		ldr	r3, .L316+16
 2641 006e 0122     		movs	r2, #1
 2642 0070 1A70     		strb	r2, [r3]
 2643              		.loc 2 501 0
 2644 0072 DFE7     		b	.L292
 2645              	.L301:
 2646              		.loc 2 503 0
 2647 0074 064B     		ldr	r3, .L316+16
 2648 0076 0322     		movs	r2, #3
 2649 0078 1A70     		strb	r2, [r3]
 2650              		.loc 2 504 0
 2651 007a DBE7     		b	.L292
 2652              	.L315:
 2653              		.loc 2 549 0
 2654 007c FFF7FEFF 		bl	__stack_chk_fail
 2655              	.LVL200:
 2656              	.L317:
 2657              		.align	2
 2658              	.L316:
 2659 0080 00000000 		.word	__stack_chk_guard
 2660 0084 00000000 		.word	.LANCHOR8
 2661 0088 00000000 		.word	.LC3
 2662 008c 00000000 		.word	SD3
 2663 0090 00000000 		.word	.LANCHOR7
 2664              		.cfi_endproc
 2665              	.LFE305:
 2666              		.size	state_compare, .-state_compare
 2667              		.section	.bss.action,"aw",%nobits
 2668              		.set	.LANCHOR4,. + 0
 2669              		.type	action, %object
 2670              		.size	action, 1
 2671              	action:
 2672 0000 00       		.space	1
 2673              		.section	.bss.counted_current_steps,"aw",%nobits
 2674              		.align	2
 2675              		.set	.LANCHOR0,. + 0
 2676              		.type	counted_current_steps, %object
 2677              		.size	counted_current_steps, 4
 2678              	counted_current_steps:
 2679 0000 00000000 		.space	4
ARM GAS  C:\Users\Marc\AppData\Local\Temp\ccffzsSK.s 			page 48


 2680              		.section	.bss.currentStateManagement,"aw",%nobits
 2681              		.set	.LANCHOR8,. + 0
 2682              		.type	currentStateManagement, %object
 2683              		.size	currentStateManagement, 1
 2684              	currentStateManagement:
 2685 0000 00       		.space	1
 2686              		.section	.bss.ePuck,"aw",%nobits
 2687              		.align	2
 2688              		.set	.LANCHOR1,. + 0
 2689              		.type	ePuck, %object
 2690              		.size	ePuck, 12
 2691              	ePuck:
 2692 0000 00000000 		.space	12
 2692      00000000 
 2692      00000000 
 2693              		.section	.bss.lettre_state,"aw",%nobits
 2694              		.set	.LANCHOR10,. + 0
 2695              		.type	lettre_state, %object
 2696              		.size	lettre_state, 1
 2697              	lettre_state:
 2698 0000 00       		.space	1
 2699              		.section	.bss.nextState,"aw",%nobits
 2700              		.set	.LANCHOR7,. + 0
 2701              		.type	nextState, %object
 2702              		.size	nextState, 1
 2703              	nextState:
 2704 0000 00       		.space	1
 2705              		.section	.bss.point_joueur_arriere,"aw",%nobits
 2706              		.set	.LANCHOR6,. + 0
 2707              		.type	point_joueur_arriere, %object
 2708              		.size	point_joueur_arriere, 1
 2709              	point_joueur_arriere:
 2710 0000 00       		.space	1
 2711              		.section	.bss.point_joueur_avant,"aw",%nobits
 2712              		.set	.LANCHOR5,. + 0
 2713              		.type	point_joueur_avant, %object
 2714              		.size	point_joueur_avant, 1
 2715              	point_joueur_avant:
 2716 0000 00       		.space	1
 2717              		.section	.bss.waThdMapping,"aw",%nobits
 2718              		.align	3
 2719              		.set	.LANCHOR11,. + 0
 2720              		.type	waThdMapping, %object
 2721              		.size	waThdMapping, 1000
 2722              	waThdMapping:
 2723 0000 00000000 		.space	1000
 2723      00000000 
 2723      00000000 
 2723      00000000 
 2723      00000000 
 2724              		.section	.data.case_init,"aw",%progbits
 2725              		.set	.LANCHOR9,. + 0
 2726              		.type	case_init, %object
 2727              		.size	case_init, 1
 2728              	case_init:
 2729 0000 01       		.byte	1
 2730              		.section	.rodata.__FUNCTION__.15061,"a",%progbits
ARM GAS  C:\Users\Marc\AppData\Local\Temp\ccffzsSK.s 			page 49


 2731              		.align	2
 2732              		.set	.LANCHOR2,. + 0
 2733              		.type	__FUNCTION__.15061, %object
 2734              		.size	__FUNCTION__.15061, 11
 2735              	__FUNCTION__.15061:
 2736 0000 5468644D 		.ascii	"ThdMapping\000"
 2736      61707069 
 2736      6E6700
 2737              		.section	.rodata.__func__.8784,"a",%progbits
 2738              		.align	2
 2739              		.set	.LANCHOR3,. + 0
 2740              		.type	__func__.8784, %object
 2741              		.size	__func__.8784, 12
 2742              	__func__.8784:
 2743 0000 63685379 		.ascii	"chSysUnlock\000"
 2743      73556E6C 
 2743      6F636B00 
 2744              		.section	.rodata.go_home.str1.4,"aMS",%progbits,1
 2745              		.align	2
 2746              	.LC2:
 2747 0000 4E4F524D 		.ascii	"NORME =0 IL DEVRAIT RIEN FAIRE PR GO HOME \012\000"
 2747      45203D30 
 2747      20494C20 
 2747      44455652 
 2747      41495420 
 2748              		.section	.rodata.nouvel_ordre.str1.4,"aMS",%progbits,1
 2749              		.align	2
 2750              	.LC0:
 2751 0000 6572726F 		.ascii	"error arret positon non nulle\012 previous=%d , nex"
 2751      72206172 
 2751      72657420 
 2751      706F7369 
 2751      746F6E20 
 2752 0030 743D2564 		.ascii	"t=%d\012\000"
 2752      0A00
 2753 0036 0000     		.space	2
 2754              	.LC1:
 2755 0038 4552524F 		.ascii	"ERROR operators not coorect \012!!! previous=%d , n"
 2755      52206F70 
 2755      65726174 
 2755      6F727320 
 2755      6E6F7420 
 2756 0068 6578743D 		.ascii	"ext=%d\012\000"
 2756      25640A00 
 2757              		.section	.rodata.state_compare.str1.4,"aMS",%progbits,1
 2758              		.align	2
 2759              	.LC3:
 2760 0000 63757272 		.ascii	"current state = %d, change state = %d\012\000"
 2760      656E7420 
 2760      73746174 
 2760      65203D20 
 2760      25642C20 
 2761              		.text
 2762              	.Letext0:
 2763              		.file 7 "c:\\users\\marc\\documents\\eclipse_e-puck2\\tools\\gcc-arm-none-eabi-7-2017-q4-major-win
 2764              		.file 8 "c:\\users\\marc\\documents\\eclipse_e-puck2\\tools\\gcc-arm-none-eabi-7-2017-q4-major-win
 2765              		.file 9 "c:\\users\\marc\\documents\\eclipse_e-puck2\\tools\\gcc-arm-none-eabi-7-2017-q4-major-win
ARM GAS  C:\Users\Marc\AppData\Local\Temp\ccffzsSK.s 			page 50


 2766              		.file 10 "c:\\users\\marc\\documents\\eclipse_e-puck2\\tools\\gcc-arm-none-eabi-7-2017-q4-major-wi
 2767              		.file 11 "c:\\users\\marc\\documents\\eclipse_e-puck2\\tools\\gcc-arm-none-eabi-7-2017-q4-major-wi
 2768              		.file 12 "c:\\users\\marc\\documents\\eclipse_e-puck2\\tools\\gcc-arm-none-eabi-7-2017-q4-major-wi
 2769              		.file 13 "c:\\users\\marc\\documents\\eclipse_e-puck2\\tools\\gcc-arm-none-eabi-7-2017-q4-major-wi
 2770              		.file 14 "<built-in>"
 2771              		.file 15 "c:\\users\\marc\\documents\\eclipse_e-puck2\\tools\\gcc-arm-none-eabi-7-2017-q4-major-wi
 2772              		.file 16 "c:\\users\\marc\\documents\\eclipse_e-puck2\\tools\\gcc-arm-none-eabi-7-2017-q4-major-wi
 2773              		.file 17 "../lib/e-puck2_main-processor/ChibiOS//os/rt/ports/ARMCMx/compilers/GCC/chtypes.h"
 2774              		.file 18 "../lib/e-puck2_main-processor/ChibiOS//os/rt/include/chsystypes.h"
 2775              		.file 19 "../lib/e-puck2_main-processor/ChibiOS//os/rt/include/chschd.h"
 2776              		.file 20 "../lib/e-puck2_main-processor/ChibiOS//os/ext/CMSIS/include/core_cm4.h"
 2777              		.file 21 "../lib/e-puck2_main-processor/ChibiOS//os/ext/CMSIS/ST/system_stm32f4xx.h"
 2778              		.file 22 "../lib/e-puck2_main-processor/ChibiOS//os/ext/CMSIS/ST/stm32f407xx.h"
 2779              		.file 23 "../lib/e-puck2_main-processor/ChibiOS//os/rt/ports/ARMCMx/chcore.h"
 2780              		.file 24 "../lib/e-puck2_main-processor/ChibiOS//os/rt/ports/ARMCMx/chcore_v7m.h"
 2781              		.file 25 "../lib/e-puck2_main-processor/ChibiOS//os/rt/include/chdebug.h"
 2782              		.file 26 "../lib/e-puck2_main-processor/ChibiOS//os/rt/include/chtm.h"
 2783              		.file 27 "../lib/e-puck2_main-processor/ChibiOS//os/rt/include/chstats.h"
 2784              		.file 28 "../lib/e-puck2_main-processor/ChibiOS//os/rt/include/chsem.h"
 2785              		.file 29 "../lib/e-puck2_main-processor/ChibiOS//os/rt/include/chmtx.h"
 2786              		.file 30 "../lib/e-puck2_main-processor/ChibiOS//os/rt/include/chevents.h"
 2787              		.file 31 "../lib/e-puck2_main-processor/ChibiOS//os/rt/include/chqueues.h"
 2788              		.file 32 "../lib/e-puck2_main-processor/ChibiOS//os/rt/include/chstreams.h"
 2789              		.file 33 "../lib/e-puck2_main-processor/ChibiOS//os/hal/ports/STM32/STM32F4xx/stm32_dma.h"
 2790              		.file 34 "../lib/e-puck2_main-processor/ChibiOS//os/hal/include/hal_ioblock.h"
 2791              		.file 35 "../lib/e-puck2_main-processor/ChibiOS//os/hal/ports/STM32/LLD/GPIOv2/pal_lld.h"
 2792              		.file 36 "../lib/e-puck2_main-processor/ChibiOS//os/hal/include/adc.h"
 2793              		.file 37 "../lib/e-puck2_main-processor/ChibiOS//os/hal/ports/STM32/STM32F4xx/adc_lld.h"
 2794              		.file 38 "../lib/e-puck2_main-processor/ChibiOS//os/hal/include/can.h"
 2795              		.file 39 "../lib/e-puck2_main-processor/ChibiOS//os/hal/ports/STM32/LLD/can_lld.h"
 2796              		.file 40 "../lib/e-puck2_main-processor/ChibiOS//os/hal/include/dac.h"
 2797              		.file 41 "../lib/e-puck2_main-processor/ChibiOS//os/hal/ports/STM32/LLD/DACv1/dac_lld.h"
 2798              		.file 42 "../lib/e-puck2_main-processor/ChibiOS//os/hal/include/ext.h"
 2799              		.file 43 "../lib/e-puck2_main-processor/ChibiOS//os/hal/ports/STM32/LLD/ext_lld.h"
 2800              		.file 44 "../lib/e-puck2_main-processor/ChibiOS//os/hal/include/gpt.h"
 2801              		.file 45 "../lib/e-puck2_main-processor/ChibiOS//os/hal/ports/STM32/LLD/TIMv1/gpt_lld.h"
 2802              		.file 46 "../lib/e-puck2_main-processor/ChibiOS//os/hal/ports/STM32/LLD/TIMv1/stm32_tim.h"
 2803              		.file 47 "../lib/e-puck2_main-processor/ChibiOS//os/hal/include/i2c.h"
 2804              		.file 48 "../lib/e-puck2_main-processor/ChibiOS//os/hal/ports/STM32/LLD/I2Cv1/i2c_lld.h"
 2805              		.file 49 "../lib/e-puck2_main-processor/ChibiOS//os/hal/include/i2s.h"
 2806              		.file 50 "../lib/e-puck2_main-processor/ChibiOS//os/hal/ports/STM32/LLD/SPIv1/i2s_lld.h"
 2807              		.file 51 "../lib/e-puck2_main-processor/ChibiOS//os/hal/include/pwm.h"
 2808              		.file 52 "../lib/e-puck2_main-processor/ChibiOS//os/hal/ports/STM32/LLD/TIMv1/pwm_lld.h"
 2809              		.file 53 "../lib/e-puck2_main-processor/ChibiOS//os/hal/include/serial.h"
 2810              		.file 54 "../lib/e-puck2_main-processor/ChibiOS//os/hal/ports/STM32/LLD/USARTv1/serial_lld.h"
 2811              		.file 55 "../lib/e-puck2_main-processor/ChibiOS//os/hal/include/sdc.h"
 2812              		.file 56 "../lib/e-puck2_main-processor/ChibiOS//os/hal/ports/STM32/LLD/sdc_lld.h"
 2813              		.file 57 "../lib/e-puck2_main-processor/ChibiOS//os/hal/include/spi.h"
 2814              		.file 58 "../lib/e-puck2_main-processor/ChibiOS//os/hal/ports/STM32/LLD/SPIv1/spi_lld.h"
 2815              		.file 59 "../lib/e-puck2_main-processor/ChibiOS//os/hal/include/usb.h"
 2816              		.file 60 "../lib/e-puck2_main-processor/ChibiOS//os/hal/ports/STM32/LLD/OTGv1/usb_lld.h"
 2817              		.file 61 "../lib/e-puck2_main-processor/ChibiOS//os/hal/ports/STM32/LLD/OTGv1/stm32_otg.h"
 2818              		.file 62 "../lib/e-puck2_main-processor/ChibiOS_ext/os/hal/include/../ports/STM32/STM32F4xx/dcmi_l
 2819              		.file 63 "c:\\users\\marc\\documents\\eclipse_e-puck2\\tools\\gcc-arm-none-eabi-7-2017-q4-major-wi
 2820              		.file 64 "../lib/e-puck2_main-processor/src/msgbus/messagebus.h"
 2821              		.file 65 "../lib/e-puck2_main-processor/src/parameter/parameter.h"
 2822              		.file 66 "./main.h"
ARM GAS  C:\Users\Marc\AppData\Local\Temp\ccffzsSK.s 			page 51


 2823              		.file 67 "./game_management.h"
 2824              		.file 68 "c:\\users\\marc\\documents\\eclipse_e-puck2\\tools\\gcc-arm-none-eabi-7-2017-q4-major-wi
 2825              		.file 69 "./camera_processing.h"
 2826              		.file 70 "../lib/e-puck2_main-processor/src/leds.h"
 2827              		.file 71 "../lib/e-puck2_main-processor/ChibiOS//os/rt/include/chthreads.h"
 2828              		.file 72 "../lib/e-puck2_main-processor/src/sensors/proximity.h"
 2829              		.file 73 "./ir_thread.h"
 2830              		.file 74 "./audio_processing.h"
 2831              		.file 75 "./letter_writing.h"
 2832              		.file 76 "./motors_processing.h"
 2833              		.file 77 "../lib/e-puck2_main-processor/src/motors.h"
 2834              		.file 78 "../lib/e-puck2_main-processor/ChibiOS//os/ext/CMSIS/include/arm_math.h"