ARM GAS  C:\Users\Marc\AppData\Local\Temp\ccN21ap3.s 			page 1


   1              		.cpu cortex-m4
   2              		.eabi_attribute 27, 1
   3              		.eabi_attribute 28, 1
   4              		.eabi_attribute 20, 1
   5              		.eabi_attribute 21, 1
   6              		.eabi_attribute 23, 3
   7              		.eabi_attribute 24, 1
   8              		.eabi_attribute 25, 1
   9              		.eabi_attribute 26, 1
  10              		.eabi_attribute 30, 2
  11              		.eabi_attribute 34, 1
  12              		.eabi_attribute 18, 4
  13              		.file	"ir_thread.c"
  14              		.text
  15              	.Ltext0:
  16              		.cfi_sections	.debug_frame
  17              		.section	.text.obstacle,"ax",%progbits
  18              		.align	1
  19              		.p2align 4,,15
  20              		.global	obstacle
  21              		.syntax unified
  22              		.thumb
  23              		.thumb_func
  24              		.fpu fpv4-sp-d16
  25              		.type	obstacle, %function
  26              	obstacle:
  27              	.LFB257:
  28              		.file 1 "ir_thread.c"
  29              		.loc 1 8 0
  30              		.cfi_startproc
  31              		@ args = 0, pretend = 0, frame = 8
  32              		@ frame_needed = 0, uses_anonymous_args = 0
  33              	.LVL0:
  34 0000 70B5     		push	{r4, r5, r6, lr}
  35              		.cfi_def_cfa_offset 16
  36              		.cfi_offset 4, -16
  37              		.cfi_offset 5, -12
  38              		.cfi_offset 6, -8
  39              		.cfi_offset 14, -4
  40 0002 114E     		ldr	r6, .L10
  41 0004 82B0     		sub	sp, sp, #8
  42              		.cfi_def_cfa_offset 24
  43              		.loc 1 8 0
  44 0006 0546     		mov	r5, r0
  45 0008 3368     		ldr	r3, [r6]
  46 000a 0193     		str	r3, [sp, #4]
  47              	.LVL1:
  48              	.LBB2:
  49              		.loc 1 10 0
  50 000c 0020     		movs	r0, #0
  51              	.LVL2:
  52 000e FFF7FEFF 		bl	get_prox
  53              	.LVL3:
  54 0012 8542     		cmp	r5, r0
  55 0014 14DD     		ble	.L2
  56              	.LVL4:
  57 0016 0120     		movs	r0, #1
ARM GAS  C:\Users\Marc\AppData\Local\Temp\ccN21ap3.s 			page 2


  58 0018 FFF7FEFF 		bl	get_prox
  59              	.LVL5:
  60 001c 8542     		cmp	r5, r0
  61 001e 0FDD     		ble	.L2
  62              	.LBE2:
  63              	.LBB3:
  64              		.loc 1 14 0
  65 0020 0524     		movs	r4, #5
  66              	.L3:
  67              	.LVL6:
  68              		.loc 1 15 0
  69 0022 2046     		mov	r0, r4
  70 0024 FFF7FEFF 		bl	get_prox
  71              	.LVL7:
  72 0028 A842     		cmp	r0, r5
  73 002a 09DA     		bge	.L2
  74              		.loc 1 14 0 discriminator 2
  75 002c 0134     		adds	r4, r4, #1
  76              	.LVL8:
  77 002e 082C     		cmp	r4, #8
  78 0030 F7D1     		bne	.L3
  79              	.LBE3:
  80              		.loc 1 19 0
  81 0032 0020     		movs	r0, #0
  82              	.LVL9:
  83              	.L4:
  84              		.loc 1 20 0
  85 0034 019A     		ldr	r2, [sp, #4]
  86 0036 3368     		ldr	r3, [r6]
  87 0038 9A42     		cmp	r2, r3
  88 003a 03D1     		bne	.L9
  89 003c 02B0     		add	sp, sp, #8
  90              		.cfi_remember_state
  91              		.cfi_def_cfa_offset 16
  92              		@ sp needed
  93 003e 70BD     		pop	{r4, r5, r6, pc}
  94              	.LVL10:
  95              	.L2:
  96              		.cfi_restore_state
  97              	.LBB4:
  98              		.loc 1 11 0
  99 0040 0120     		movs	r0, #1
 100 0042 F7E7     		b	.L4
 101              	.L9:
 102              	.LBE4:
 103              		.loc 1 20 0
 104 0044 FFF7FEFF 		bl	__stack_chk_fail
 105              	.LVL11:
 106              	.L11:
 107              		.align	2
 108              	.L10:
 109 0048 00000000 		.word	__stack_chk_guard
 110              		.cfi_endproc
 111              	.LFE257:
 112              		.size	obstacle, .-obstacle
 113              		.text
 114              	.Letext0:
ARM GAS  C:\Users\Marc\AppData\Local\Temp\ccN21ap3.s 			page 3


 115              		.file 2 "c:\\users\\marc\\documents\\eclipse_e-puck2\\tools\\gcc-arm-none-eabi-7-2017-q4-major-win
 116              		.file 3 "c:\\users\\marc\\documents\\eclipse_e-puck2\\tools\\gcc-arm-none-eabi-7-2017-q4-major-win
 117              		.file 4 "c:\\users\\marc\\documents\\eclipse_e-puck2\\tools\\gcc-arm-none-eabi-7-2017-q4-major-win
 118              		.file 5 "../lib/e-puck2_main-processor/ChibiOS//os/rt/ports/ARMCMx/compilers/GCC/chtypes.h"
 119              		.file 6 "../lib/e-puck2_main-processor/ChibiOS//os/rt/include/chsystypes.h"
 120              		.file 7 "../lib/e-puck2_main-processor/ChibiOS//os/rt/include/chschd.h"
 121              		.file 8 "../lib/e-puck2_main-processor/ChibiOS//os/ext/CMSIS/include/core_cm4.h"
 122              		.file 9 "../lib/e-puck2_main-processor/ChibiOS//os/ext/CMSIS/ST/system_stm32f4xx.h"
 123              		.file 10 "../lib/e-puck2_main-processor/ChibiOS//os/ext/CMSIS/ST/stm32f407xx.h"
 124              		.file 11 "../lib/e-puck2_main-processor/ChibiOS//os/rt/ports/ARMCMx/chcore.h"
 125              		.file 12 "../lib/e-puck2_main-processor/ChibiOS//os/rt/ports/ARMCMx/chcore_v7m.h"
 126              		.file 13 "../lib/e-puck2_main-processor/ChibiOS//os/rt/include/chdebug.h"
 127              		.file 14 "../lib/e-puck2_main-processor/ChibiOS//os/rt/include/chtm.h"
 128              		.file 15 "../lib/e-puck2_main-processor/ChibiOS//os/rt/include/chstats.h"
 129              		.file 16 "../lib/e-puck2_main-processor/ChibiOS//os/rt/include/chsem.h"
 130              		.file 17 "../lib/e-puck2_main-processor/ChibiOS//os/rt/include/chmtx.h"
 131              		.file 18 "../lib/e-puck2_main-processor/ChibiOS//os/rt/include/chregistry.h"
 132              		.file 19 "../lib/e-puck2_main-processor/ChibiOS//os/rt/include/chevents.h"
 133              		.file 20 "../lib/e-puck2_main-processor/ChibiOS//os/rt/include/chqueues.h"
 134              		.file 21 "../lib/e-puck2_main-processor/ChibiOS//os/hal/ports/STM32/STM32F4xx/stm32_dma.h"
 135              		.file 22 "../lib/e-puck2_main-processor/ChibiOS//os/hal/include/hal_ioblock.h"
 136              		.file 23 "../lib/e-puck2_main-processor/ChibiOS//os/hal/ports/STM32/LLD/GPIOv2/pal_lld.h"
 137              		.file 24 "../lib/e-puck2_main-processor/ChibiOS//os/hal/include/adc.h"
 138              		.file 25 "../lib/e-puck2_main-processor/ChibiOS//os/hal/ports/STM32/STM32F4xx/adc_lld.h"
 139              		.file 26 "../lib/e-puck2_main-processor/ChibiOS//os/hal/include/can.h"
 140              		.file 27 "../lib/e-puck2_main-processor/ChibiOS//os/hal/ports/STM32/LLD/can_lld.h"
 141              		.file 28 "../lib/e-puck2_main-processor/ChibiOS//os/hal/include/dac.h"
 142              		.file 29 "../lib/e-puck2_main-processor/ChibiOS//os/hal/ports/STM32/LLD/DACv1/dac_lld.h"
 143              		.file 30 "../lib/e-puck2_main-processor/ChibiOS//os/hal/include/ext.h"
 144              		.file 31 "../lib/e-puck2_main-processor/ChibiOS//os/hal/ports/STM32/LLD/ext_lld.h"
 145              		.file 32 "../lib/e-puck2_main-processor/ChibiOS//os/hal/include/gpt.h"
 146              		.file 33 "../lib/e-puck2_main-processor/ChibiOS//os/hal/ports/STM32/LLD/TIMv1/gpt_lld.h"
 147              		.file 34 "../lib/e-puck2_main-processor/ChibiOS//os/hal/ports/STM32/LLD/TIMv1/stm32_tim.h"
 148              		.file 35 "../lib/e-puck2_main-processor/ChibiOS//os/hal/include/i2c.h"
 149              		.file 36 "../lib/e-puck2_main-processor/ChibiOS//os/hal/ports/STM32/LLD/I2Cv1/i2c_lld.h"
 150              		.file 37 "../lib/e-puck2_main-processor/ChibiOS//os/hal/include/i2s.h"
 151              		.file 38 "../lib/e-puck2_main-processor/ChibiOS//os/hal/ports/STM32/LLD/SPIv1/i2s_lld.h"
 152              		.file 39 "../lib/e-puck2_main-processor/ChibiOS//os/hal/include/pwm.h"
 153              		.file 40 "../lib/e-puck2_main-processor/ChibiOS//os/hal/ports/STM32/LLD/TIMv1/pwm_lld.h"
 154              		.file 41 "../lib/e-puck2_main-processor/ChibiOS//os/hal/include/serial.h"
 155              		.file 42 "../lib/e-puck2_main-processor/ChibiOS//os/hal/ports/STM32/LLD/USARTv1/serial_lld.h"
 156              		.file 43 "../lib/e-puck2_main-processor/ChibiOS//os/hal/include/sdc.h"
 157              		.file 44 "../lib/e-puck2_main-processor/ChibiOS//os/hal/ports/STM32/LLD/sdc_lld.h"
 158              		.file 45 "../lib/e-puck2_main-processor/ChibiOS//os/hal/include/spi.h"
 159              		.file 46 "../lib/e-puck2_main-processor/ChibiOS//os/hal/ports/STM32/LLD/SPIv1/spi_lld.h"
 160              		.file 47 "../lib/e-puck2_main-processor/ChibiOS//os/hal/include/usb.h"
 161              		.file 48 "../lib/e-puck2_main-processor/ChibiOS//os/hal/ports/STM32/LLD/OTGv1/usb_lld.h"
 162              		.file 49 "../lib/e-puck2_main-processor/ChibiOS//os/hal/ports/STM32/LLD/OTGv1/stm32_otg.h"
 163              		.file 50 "../lib/e-puck2_main-processor/ChibiOS_ext/os/hal/include/../ports/STM32/STM32F4xx/dcmi_l
 164              		.file 51 "c:\\users\\marc\\documents\\eclipse_e-puck2\\tools\\gcc-arm-none-eabi-7-2017-q4-major-wi
 165              		.file 52 "c:\\users\\marc\\documents\\eclipse_e-puck2\\tools\\gcc-arm-none-eabi-7-2017-q4-major-wi
 166              		.file 53 "c:\\users\\marc\\documents\\eclipse_e-puck2\\tools\\gcc-arm-none-eabi-7-2017-q4-major-wi
 167              		.file 54 "../lib/e-puck2_main-processor/src/msgbus/messagebus.h"
 168              		.file 55 "c:\\users\\marc\\documents\\eclipse_e-puck2\\tools\\gcc-arm-none-eabi-7-2017-q4-major-wi
 169              		.file 56 "c:\\users\\marc\\documents\\eclipse_e-puck2\\tools\\gcc-arm-none-eabi-7-2017-q4-major-wi
 170              		.file 57 "../lib/e-puck2_main-processor/src/parameter/parameter.h"
 171              		.file 58 "./main.h"
ARM GAS  C:\Users\Marc\AppData\Local\Temp\ccN21ap3.s 			page 4


 172              		.file 59 "../lib/e-puck2_main-processor/src/sensors/proximity.h"