ARM GAS  C:\Users\Marc\AppData\Local\Temp\ccF1iXCm.s 			page 1


   1              		.cpu cortex-m4
   2              		.eabi_attribute 27, 1
   3              		.eabi_attribute 28, 1
   4              		.eabi_attribute 20, 1
   5              		.eabi_attribute 21, 1
   6              		.eabi_attribute 23, 3
   7              		.eabi_attribute 24, 1
   8              		.eabi_attribute 25, 1
   9              		.eabi_attribute 26, 1
  10              		.eabi_attribute 30, 2
  11              		.eabi_attribute 34, 1
  12              		.eabi_attribute 18, 4
  13              		.file	"letter_writing.c"
  14              		.text
  15              	.Ltext0:
  16              		.cfi_sections	.debug_frame
  17              		.section	.text.decalage_interlettre,"ax",%progbits
  18              		.align	1
  19              		.p2align 4,,15
  20              		.global	decalage_interlettre
  21              		.syntax unified
  22              		.thumb
  23              		.thumb_func
  24              		.fpu fpv4-sp-d16
  25              		.type	decalage_interlettre, %function
  26              	decalage_interlettre:
  27              	.LFB293:
  28              		.file 1 "letter_writing.c"
  29              		.loc 1 34 0
  30              		.cfi_startproc
  31              		@ args = 0, pretend = 0, frame = 8
  32              		@ frame_needed = 0, uses_anonymous_args = 0
  33 0000 10B5     		push	{r4, lr}
  34              		.cfi_def_cfa_offset 8
  35              		.cfi_offset 4, -8
  36              		.cfi_offset 14, -4
  37              		.loc 1 35 0
  38 0002 DFED150A 		vldr.32	s1, .L7
  39              		.loc 1 34 0
  40 0006 154C     		ldr	r4, .L7+4
  41 0008 82B0     		sub	sp, sp, #8
  42              		.cfi_def_cfa_offset 16
  43              		.loc 1 34 0
  44 000a 2368     		ldr	r3, [r4]
  45 000c 0193     		str	r3, [sp, #4]
  46              		.loc 1 35 0
  47 000e B0EE600A 		vmov.f32	s0, s1
  48 0012 FBEE0E1A 		vmov.f32	s3, #-3.0e+1
  49 0016 B3EE0E1A 		vmov.f32	s2, #3.0e+1
  50 001a FFF7FEFF 		bl	motors_set_position
  51              	.LVL0:
  52              		.loc 1 36 0
  53 001e F3EE0E1A 		vmov.f32	s3, #3.0e+1
  54 0022 F2EE0E0A 		vmov.f32	s1, #1.5e+1
  55 0026 B0EE611A 		vmov.f32	s2, s3
  56 002a B0EE600A 		vmov.f32	s0, s1
  57 002e FFF7FEFF 		bl	motors_set_position
ARM GAS  C:\Users\Marc\AppData\Local\Temp\ccF1iXCm.s 			page 2


  58              	.LVL1:
  59              		.loc 1 37 0
  60 0032 019A     		ldr	r2, [sp, #4]
  61 0034 2368     		ldr	r3, [r4]
  62 0036 9A42     		cmp	r2, r3
  63 0038 0CD1     		bne	.L6
  64 003a DFED070A 		vldr.32	s1, .L7
  65 003e F3EE0E1A 		vmov.f32	s3, #3.0e+1
  66 0042 B0EE600A 		vmov.f32	s0, s1
  67 0046 BBEE0E1A 		vmov.f32	s2, #-3.0e+1
  68              		.loc 1 38 0
  69 004a 02B0     		add	sp, sp, #8
  70              		.cfi_remember_state
  71              		.cfi_def_cfa_offset 8
  72              		@ sp needed
  73 004c BDE81040 		pop	{r4, lr}
  74              		.cfi_restore 14
  75              		.cfi_restore 4
  76              		.cfi_def_cfa_offset 0
  77              		.loc 1 37 0
  78 0050 FFF7FEBF 		b	motors_set_position
  79              	.LVL2:
  80              	.L6:
  81              		.cfi_restore_state
  82 0054 FFF7FEFF 		bl	__stack_chk_fail
  83              	.LVL3:
  84              	.L8:
  85              		.align	2
  86              	.L7:
  87 0058 CD758640 		.word	1082553805
  88 005c 00000000 		.word	__stack_chk_guard
  89              		.cfi_endproc
  90              	.LFE293:
  91              		.size	decalage_interlettre, .-decalage_interlettre
  92              		.section	.text.lettre_M,"ax",%progbits
  93              		.align	1
  94              		.p2align 4,,15
  95              		.global	lettre_M
  96              		.syntax unified
  97              		.thumb
  98              		.thumb_func
  99              		.fpu fpv4-sp-d16
 100              		.type	lettre_M, %function
 101              	lettre_M:
 102              	.LFB294:
 103              		.loc 1 40 0
 104              		.cfi_startproc
 105              		@ args = 0, pretend = 0, frame = 8
 106              		@ frame_needed = 0, uses_anonymous_args = 0
 107 0000 10B5     		push	{r4, lr}
 108              		.cfi_def_cfa_offset 8
 109              		.cfi_offset 4, -8
 110              		.cfi_offset 14, -4
 111 0002 2E4C     		ldr	r4, .L14
 112 0004 82B0     		sub	sp, sp, #8
 113              		.cfi_def_cfa_offset 16
 114              		.loc 1 41 0
ARM GAS  C:\Users\Marc\AppData\Local\Temp\ccF1iXCm.s 			page 3


 115 0006 F3EE0E1A 		vmov.f32	s3, #3.0e+1
 116              		.loc 1 40 0
 117 000a 2368     		ldr	r3, [r4]
 118 000c 0193     		str	r3, [sp, #4]
 119              		.loc 1 41 0
 120 000e B0EE611A 		vmov.f32	s2, s3
 121 0012 F0EE610A 		vmov.f32	s1, s3
 122 0016 B0EE610A 		vmov.f32	s0, s3
 123 001a FFF7FEFF 		bl	motors_set_position
 124              	.LVL4:
 125              		.loc 1 42 0
 126 001e DFED280A 		vldr.32	s1, .L14+4
 127 0022 FBEE0E1A 		vmov.f32	s3, #-3.0e+1
 128 0026 B0EE600A 		vmov.f32	s0, s1
 129 002a B3EE0E1A 		vmov.f32	s2, #3.0e+1
 130 002e FFF7FEFF 		bl	motors_set_position
 131              	.LVL5:
 132              		.loc 1 43 0
 133 0032 F3EE0E1A 		vmov.f32	s3, #3.0e+1
 134 0036 F2EE0E0A 		vmov.f32	s1, #1.5e+1
 135 003a B0EE611A 		vmov.f32	s2, s3
 136 003e B0EE600A 		vmov.f32	s0, s1
 137 0042 FFF7FEFF 		bl	motors_set_position
 138              	.LVL6:
 139              		.loc 1 44 0
 140 0046 DFED1F0A 		vldr.32	s1, .L14+8
 141 004a F3EE0E1A 		vmov.f32	s3, #3.0e+1
 142 004e B0EE600A 		vmov.f32	s0, s1
 143 0052 BBEE0E1A 		vmov.f32	s2, #-3.0e+1
 144 0056 FFF7FEFF 		bl	motors_set_position
 145              	.LVL7:
 146              		.loc 1 45 0
 147 005a F3EE0E1A 		vmov.f32	s3, #3.0e+1
 148 005e F2EE0E0A 		vmov.f32	s1, #1.5e+1
 149 0062 B0EE611A 		vmov.f32	s2, s3
 150 0066 B0EE600A 		vmov.f32	s0, s1
 151 006a FFF7FEFF 		bl	motors_set_position
 152              	.LVL8:
 153              		.loc 1 46 0
 154 006e DFED140A 		vldr.32	s1, .L14+4
 155 0072 FBEE0E1A 		vmov.f32	s3, #-3.0e+1
 156 0076 B0EE600A 		vmov.f32	s0, s1
 157 007a B3EE0E1A 		vmov.f32	s2, #3.0e+1
 158 007e FFF7FEFF 		bl	motors_set_position
 159              	.LVL9:
 160              		.loc 1 47 0
 161 0082 F3EE0E1A 		vmov.f32	s3, #3.0e+1
 162 0086 B0EE611A 		vmov.f32	s2, s3
 163 008a F0EE610A 		vmov.f32	s1, s3
 164 008e B0EE610A 		vmov.f32	s0, s3
 165 0092 FFF7FEFF 		bl	motors_set_position
 166              	.LVL10:
 167              		.loc 1 49 0
 168 0096 019A     		ldr	r2, [sp, #4]
 169 0098 2368     		ldr	r3, [r4]
 170 009a 9A42     		cmp	r2, r3
 171 009c 0CD1     		bne	.L13
ARM GAS  C:\Users\Marc\AppData\Local\Temp\ccF1iXCm.s 			page 4


 172 009e DFED0A0A 		vldr.32	s1, .L14+12
 173 00a2 FBEE0E1A 		vmov.f32	s3, #-3.0e+1
 174 00a6 B0EE600A 		vmov.f32	s0, s1
 175 00aa B3EE0E1A 		vmov.f32	s2, #3.0e+1
 176              		.loc 1 50 0
 177 00ae 02B0     		add	sp, sp, #8
 178              		.cfi_remember_state
 179              		.cfi_def_cfa_offset 8
 180              		@ sp needed
 181 00b0 BDE81040 		pop	{r4, lr}
 182              		.cfi_restore 14
 183              		.cfi_restore 4
 184              		.cfi_def_cfa_offset 0
 185              		.loc 1 49 0
 186 00b4 FFF7FEBF 		b	motors_set_position
 187              	.LVL11:
 188              	.L13:
 189              		.cfi_restore_state
 190 00b8 FFF7FEFF 		bl	__stack_chk_fail
 191              	.LVL12:
 192              	.L15:
 193              		.align	2
 194              	.L14:
 195 00bc 00000000 		.word	__stack_chk_guard
 196 00c0 BC47B340 		.word	1085491132
 197 00c4 BC473340 		.word	1077102524
 198 00c8 CD750641 		.word	1090942413
 199              		.cfi_endproc
 200              	.LFE294:
 201              		.size	lettre_M, .-lettre_M
 202              		.section	.text.lettre_O,"ax",%progbits
 203              		.align	1
 204              		.p2align 4,,15
 205              		.global	lettre_O
 206              		.syntax unified
 207              		.thumb
 208              		.thumb_func
 209              		.fpu fpv4-sp-d16
 210              		.type	lettre_O, %function
 211              	lettre_O:
 212              	.LFB295:
 213              		.loc 1 52 0
 214              		.cfi_startproc
 215              		@ args = 0, pretend = 0, frame = 8
 216              		@ frame_needed = 0, uses_anonymous_args = 0
 217 0000 10B5     		push	{r4, lr}
 218              		.cfi_def_cfa_offset 8
 219              		.cfi_offset 4, -8
 220              		.cfi_offset 14, -4
 221              		.loc 1 53 0
 222 0002 DFED3D0A 		vldr.32	s1, .L21
 223              		.loc 1 52 0
 224 0006 3D4C     		ldr	r4, .L21+4
 225 0008 82B0     		sub	sp, sp, #8
 226              		.cfi_def_cfa_offset 16
 227              		.loc 1 52 0
 228 000a 2368     		ldr	r3, [r4]
ARM GAS  C:\Users\Marc\AppData\Local\Temp\ccF1iXCm.s 			page 5


 229 000c 0193     		str	r3, [sp, #4]
 230              		.loc 1 53 0
 231 000e B0EE600A 		vmov.f32	s0, s1
 232 0012 F3EE0E1A 		vmov.f32	s3, #3.0e+1
 233 0016 BBEE0E1A 		vmov.f32	s2, #-3.0e+1
 234 001a FFF7FEFF 		bl	motors_set_position
 235              	.LVL13:
 236              		.loc 1 54 0
 237 001e F3EE0E1A 		vmov.f32	s3, #3.0e+1
 238 0022 F2EE040A 		vmov.f32	s1, #1.0e+1
 239 0026 B0EE611A 		vmov.f32	s2, s3
 240 002a B0EE600A 		vmov.f32	s0, s1
 241 002e FFF7FEFF 		bl	motors_set_position
 242              	.LVL14:
 243              		.loc 1 55 0
 244 0032 DFED310A 		vldr.32	s1, .L21
 245 0036 FBEE0E1A 		vmov.f32	s3, #-3.0e+1
 246 003a B0EE600A 		vmov.f32	s0, s1
 247 003e B3EE0E1A 		vmov.f32	s2, #3.0e+1
 248 0042 FFF7FEFF 		bl	motors_set_position
 249              	.LVL15:
 250              		.loc 1 56 0
 251 0046 F3EE0E1A 		vmov.f32	s3, #3.0e+1
 252 004a B0EE611A 		vmov.f32	s2, s3
 253 004e F0EE610A 		vmov.f32	s1, s3
 254 0052 B0EE610A 		vmov.f32	s0, s3
 255 0056 FFF7FEFF 		bl	motors_set_position
 256              	.LVL16:
 257              		.loc 1 57 0
 258 005a DFED270A 		vldr.32	s1, .L21
 259 005e FBEE0E1A 		vmov.f32	s3, #-3.0e+1
 260 0062 B0EE600A 		vmov.f32	s0, s1
 261 0066 B3EE0E1A 		vmov.f32	s2, #3.0e+1
 262 006a FFF7FEFF 		bl	motors_set_position
 263              	.LVL17:
 264              		.loc 1 58 0
 265 006e F3EE0E1A 		vmov.f32	s3, #3.0e+1
 266 0072 F3EE040A 		vmov.f32	s1, #2.0e+1
 267 0076 B0EE611A 		vmov.f32	s2, s3
 268 007a B0EE600A 		vmov.f32	s0, s1
 269 007e FFF7FEFF 		bl	motors_set_position
 270              	.LVL18:
 271              		.loc 1 59 0
 272 0082 DFED1D0A 		vldr.32	s1, .L21
 273 0086 FBEE0E1A 		vmov.f32	s3, #-3.0e+1
 274 008a B0EE600A 		vmov.f32	s0, s1
 275 008e B3EE0E1A 		vmov.f32	s2, #3.0e+1
 276 0092 FFF7FEFF 		bl	motors_set_position
 277              	.LVL19:
 278              		.loc 1 60 0
 279 0096 F3EE0E1A 		vmov.f32	s3, #3.0e+1
 280 009a B0EE611A 		vmov.f32	s2, s3
 281 009e F0EE610A 		vmov.f32	s1, s3
 282 00a2 B0EE610A 		vmov.f32	s0, s3
 283 00a6 FFF7FEFF 		bl	motors_set_position
 284              	.LVL20:
 285              		.loc 1 61 0
ARM GAS  C:\Users\Marc\AppData\Local\Temp\ccF1iXCm.s 			page 6


 286 00aa DFED130A 		vldr.32	s1, .L21
 287 00ae FBEE0E1A 		vmov.f32	s3, #-3.0e+1
 288 00b2 B0EE600A 		vmov.f32	s0, s1
 289 00b6 B3EE0E1A 		vmov.f32	s2, #3.0e+1
 290 00ba FFF7FEFF 		bl	motors_set_position
 291              	.LVL21:
 292              		.loc 1 62 0
 293 00be F3EE0E1A 		vmov.f32	s3, #3.0e+1
 294 00c2 F2EE040A 		vmov.f32	s1, #1.0e+1
 295 00c6 B0EE611A 		vmov.f32	s2, s3
 296 00ca B0EE600A 		vmov.f32	s0, s1
 297 00ce FFF7FEFF 		bl	motors_set_position
 298              	.LVL22:
 299              		.loc 1 63 0
 300 00d2 019A     		ldr	r2, [sp, #4]
 301 00d4 2368     		ldr	r3, [r4]
 302 00d6 9A42     		cmp	r2, r3
 303 00d8 0CD1     		bne	.L20
 304 00da DFED070A 		vldr.32	s1, .L21
 305 00de FBEE0E1A 		vmov.f32	s3, #-3.0e+1
 306 00e2 B0EE600A 		vmov.f32	s0, s1
 307 00e6 B3EE0E1A 		vmov.f32	s2, #3.0e+1
 308              		.loc 1 64 0
 309 00ea 02B0     		add	sp, sp, #8
 310              		.cfi_remember_state
 311              		.cfi_def_cfa_offset 8
 312              		@ sp needed
 313 00ec BDE81040 		pop	{r4, lr}
 314              		.cfi_restore 14
 315              		.cfi_restore 4
 316              		.cfi_def_cfa_offset 0
 317              		.loc 1 63 0
 318 00f0 FFF7FEBF 		b	motors_set_position
 319              	.LVL23:
 320              	.L20:
 321              		.cfi_restore_state
 322 00f4 FFF7FEFF 		bl	__stack_chk_fail
 323              	.LVL24:
 324              	.L22:
 325              		.align	2
 326              	.L21:
 327 00f8 CD758640 		.word	1082553805
 328 00fc 00000000 		.word	__stack_chk_guard
 329              		.cfi_endproc
 330              	.LFE295:
 331              		.size	lettre_O, .-lettre_O
 332              		.section	.text.lettre_N,"ax",%progbits
 333              		.align	1
 334              		.p2align 4,,15
 335              		.global	lettre_N
 336              		.syntax unified
 337              		.thumb
 338              		.thumb_func
 339              		.fpu fpv4-sp-d16
 340              		.type	lettre_N, %function
 341              	lettre_N:
 342              	.LFB296:
ARM GAS  C:\Users\Marc\AppData\Local\Temp\ccF1iXCm.s 			page 7


 343              		.loc 1 66 0
 344              		.cfi_startproc
 345              		@ args = 0, pretend = 0, frame = 8
 346              		@ frame_needed = 0, uses_anonymous_args = 0
 347 0000 10B5     		push	{r4, lr}
 348              		.cfi_def_cfa_offset 8
 349              		.cfi_offset 4, -8
 350              		.cfi_offset 14, -4
 351 0002 2E4C     		ldr	r4, .L28
 352 0004 82B0     		sub	sp, sp, #8
 353              		.cfi_def_cfa_offset 16
 354              		.loc 1 67 0
 355 0006 F3EE0E1A 		vmov.f32	s3, #3.0e+1
 356              		.loc 1 66 0
 357 000a 2368     		ldr	r3, [r4]
 358 000c 0193     		str	r3, [sp, #4]
 359              		.loc 1 67 0
 360 000e B0EE611A 		vmov.f32	s2, s3
 361 0012 F0EE610A 		vmov.f32	s1, s3
 362 0016 B0EE610A 		vmov.f32	s0, s3
 363 001a FFF7FEFF 		bl	motors_set_position
 364              	.LVL25:
 365              		.loc 1 68 0
 366 001e DFED280A 		vldr.32	s1, .L28+4
 367 0022 FBEE0E1A 		vmov.f32	s3, #-3.0e+1
 368 0026 B0EE600A 		vmov.f32	s0, s1
 369 002a B3EE0E1A 		vmov.f32	s2, #3.0e+1
 370 002e FFF7FEFF 		bl	motors_set_position
 371              	.LVL26:
 372              		.loc 1 69 0
 373 0032 DFED240A 		vldr.32	s1, .L28+8
 374 0036 F3EE0E1A 		vmov.f32	s3, #3.0e+1
 375 003a B0EE600A 		vmov.f32	s0, s1
 376 003e B0EE611A 		vmov.f32	s2, s3
 377 0042 FFF7FEFF 		bl	motors_set_position
 378              	.LVL27:
 379              		.loc 1 70 0
 380 0046 DFED1E0A 		vldr.32	s1, .L28+4
 381 004a F3EE0E1A 		vmov.f32	s3, #3.0e+1
 382 004e B0EE600A 		vmov.f32	s0, s1
 383 0052 BBEE0E1A 		vmov.f32	s2, #-3.0e+1
 384 0056 FFF7FEFF 		bl	motors_set_position
 385              	.LVL28:
 386              		.loc 1 71 0
 387 005a F3EE0E1A 		vmov.f32	s3, #3.0e+1
 388 005e B0EE611A 		vmov.f32	s2, s3
 389 0062 F0EE610A 		vmov.f32	s1, s3
 390 0066 B0EE610A 		vmov.f32	s0, s3
 391 006a FFF7FEFF 		bl	motors_set_position
 392              	.LVL29:
 393              		.loc 1 72 0
 394 006e DFED160A 		vldr.32	s1, .L28+12
 395 0072 FBEE0E1A 		vmov.f32	s3, #-3.0e+1
 396 0076 B0EE600A 		vmov.f32	s0, s1
 397 007a B3EE0E1A 		vmov.f32	s2, #3.0e+1
 398 007e FFF7FEFF 		bl	motors_set_position
 399              	.LVL30:
ARM GAS  C:\Users\Marc\AppData\Local\Temp\ccF1iXCm.s 			page 8


 400              		.loc 1 73 0
 401 0082 F3EE0E1A 		vmov.f32	s3, #3.0e+1
 402 0086 B0EE611A 		vmov.f32	s2, s3
 403 008a F0EE610A 		vmov.f32	s1, s3
 404 008e B0EE610A 		vmov.f32	s0, s3
 405 0092 FFF7FEFF 		bl	motors_set_position
 406              	.LVL31:
 407              		.loc 1 74 0
 408 0096 019A     		ldr	r2, [sp, #4]
 409 0098 2368     		ldr	r3, [r4]
 410 009a 9A42     		cmp	r2, r3
 411 009c 0CD1     		bne	.L27
 412 009e DFED0A0A 		vldr.32	s1, .L28+12
 413 00a2 FBEE0E1A 		vmov.f32	s3, #-3.0e+1
 414 00a6 B0EE600A 		vmov.f32	s0, s1
 415 00aa B3EE0E1A 		vmov.f32	s2, #3.0e+1
 416              		.loc 1 75 0
 417 00ae 02B0     		add	sp, sp, #8
 418              		.cfi_remember_state
 419              		.cfi_def_cfa_offset 8
 420              		@ sp needed
 421 00b0 BDE81040 		pop	{r4, lr}
 422              		.cfi_restore 14
 423              		.cfi_restore 4
 424              		.cfi_def_cfa_offset 0
 425              		.loc 1 74 0
 426 00b4 FFF7FEBF 		b	motors_set_position
 427              	.LVL32:
 428              	.L27:
 429              		.cfi_restore_state
 430 00b8 FFF7FEFF 		bl	__stack_chk_fail
 431              	.LVL33:
 432              	.L29:
 433              		.align	2
 434              	.L28:
 435 00bc 00000000 		.word	__stack_chk_guard
 436 00c0 500AEF40 		.word	1089407568
 437 00c4 00000042 		.word	1107296256
 438 00c8 CD750641 		.word	1090942413
 439              		.cfi_endproc
 440              	.LFE296:
 441              		.size	lettre_N, .-lettre_N
 442              		.section	.text.lettre_D,"ax",%progbits
 443              		.align	1
 444              		.p2align 4,,15
 445              		.global	lettre_D
 446              		.syntax unified
 447              		.thumb
 448              		.thumb_func
 449              		.fpu fpv4-sp-d16
 450              		.type	lettre_D, %function
 451              	lettre_D:
 452              	.LFB297:
 453              		.loc 1 77 0
 454              		.cfi_startproc
 455              		@ args = 0, pretend = 0, frame = 8
 456              		@ frame_needed = 0, uses_anonymous_args = 0
ARM GAS  C:\Users\Marc\AppData\Local\Temp\ccF1iXCm.s 			page 9


 457 0000 10B5     		push	{r4, lr}
 458              		.cfi_def_cfa_offset 8
 459              		.cfi_offset 4, -8
 460              		.cfi_offset 14, -4
 461 0002 424C     		ldr	r4, .L35
 462 0004 82B0     		sub	sp, sp, #8
 463              		.cfi_def_cfa_offset 16
 464              		.loc 1 78 0
 465 0006 F3EE0E1A 		vmov.f32	s3, #3.0e+1
 466              		.loc 1 77 0
 467 000a 2368     		ldr	r3, [r4]
 468 000c 0193     		str	r3, [sp, #4]
 469              		.loc 1 78 0
 470 000e B0EE611A 		vmov.f32	s2, s3
 471 0012 F0EE610A 		vmov.f32	s1, s3
 472 0016 B0EE610A 		vmov.f32	s0, s3
 473 001a FFF7FEFF 		bl	motors_set_position
 474              	.LVL34:
 475              		.loc 1 79 0
 476 001e DFED3C0A 		vldr.32	s1, .L35+4
 477 0022 FBEE0E1A 		vmov.f32	s3, #-3.0e+1
 478 0026 B0EE600A 		vmov.f32	s0, s1
 479 002a B3EE0E1A 		vmov.f32	s2, #3.0e+1
 480 002e FFF7FEFF 		bl	motors_set_position
 481              	.LVL35:
 482              		.loc 1 80 0
 483 0032 F3EE0E1A 		vmov.f32	s3, #3.0e+1
 484 0036 F1EE040A 		vmov.f32	s1, #5.0e+0
 485 003a B0EE611A 		vmov.f32	s2, s3
 486 003e B0EE600A 		vmov.f32	s0, s1
 487 0042 FFF7FEFF 		bl	motors_set_position
 488              	.LVL36:
 489              		.loc 1 81 0
 490 0046 DFED330A 		vldr.32	s1, .L35+8
 491 004a FBEE0E1A 		vmov.f32	s3, #-3.0e+1
 492 004e B0EE600A 		vmov.f32	s0, s1
 493 0052 B3EE0E1A 		vmov.f32	s2, #3.0e+1
 494 0056 FFF7FEFF 		bl	motors_set_position
 495              	.LVL37:
 496              		.loc 1 82 0
 497 005a DFED2F0A 		vldr.32	s1, .L35+12
 498 005e F3EE0E1A 		vmov.f32	s3, #3.0e+1
 499 0062 B0EE600A 		vmov.f32	s0, s1
 500 0066 B0EE611A 		vmov.f32	s2, s3
 501 006a FFF7FEFF 		bl	motors_set_position
 502              	.LVL38:
 503              		.loc 1 83 0
 504 006e DFED290A 		vldr.32	s1, .L35+8
 505 0072 FBEE0E1A 		vmov.f32	s3, #-3.0e+1
 506 0076 B0EE600A 		vmov.f32	s0, s1
 507 007a B3EE0E1A 		vmov.f32	s2, #3.0e+1
 508 007e FFF7FEFF 		bl	motors_set_position
 509              	.LVL39:
 510              		.loc 1 84 0
 511 0082 F3EE0E1A 		vmov.f32	s3, #3.0e+1
 512 0086 F2EE040A 		vmov.f32	s1, #1.0e+1
 513 008a B0EE611A 		vmov.f32	s2, s3
ARM GAS  C:\Users\Marc\AppData\Local\Temp\ccF1iXCm.s 			page 10


 514 008e B0EE600A 		vmov.f32	s0, s1
 515 0092 FFF7FEFF 		bl	motors_set_position
 516              	.LVL40:
 517              		.loc 1 85 0
 518 0096 DFED1F0A 		vldr.32	s1, .L35+8
 519 009a FBEE0E1A 		vmov.f32	s3, #-3.0e+1
 520 009e B0EE600A 		vmov.f32	s0, s1
 521 00a2 B3EE0E1A 		vmov.f32	s2, #3.0e+1
 522 00a6 FFF7FEFF 		bl	motors_set_position
 523              	.LVL41:
 524              		.loc 1 86 0
 525 00aa DFED1B0A 		vldr.32	s1, .L35+12
 526 00ae F3EE0E1A 		vmov.f32	s3, #3.0e+1
 527 00b2 B0EE600A 		vmov.f32	s0, s1
 528 00b6 B0EE611A 		vmov.f32	s2, s3
 529 00ba FFF7FEFF 		bl	motors_set_position
 530              	.LVL42:
 531              		.loc 1 87 0
 532 00be DFED150A 		vldr.32	s1, .L35+8
 533 00c2 FBEE0E1A 		vmov.f32	s3, #-3.0e+1
 534 00c6 B0EE600A 		vmov.f32	s0, s1
 535 00ca B3EE0E1A 		vmov.f32	s2, #3.0e+1
 536 00ce FFF7FEFF 		bl	motors_set_position
 537              	.LVL43:
 538              		.loc 1 88 0
 539 00d2 F3EE0E1A 		vmov.f32	s3, #3.0e+1
 540 00d6 F1EE040A 		vmov.f32	s1, #5.0e+0
 541 00da B0EE611A 		vmov.f32	s2, s3
 542 00de B0EE600A 		vmov.f32	s0, s1
 543 00e2 FFF7FEFF 		bl	motors_set_position
 544              	.LVL44:
 545              		.loc 1 89 0
 546 00e6 019A     		ldr	r2, [sp, #4]
 547 00e8 2368     		ldr	r3, [r4]
 548 00ea 9A42     		cmp	r2, r3
 549 00ec 0CD1     		bne	.L34
 550 00ee DFED080A 		vldr.32	s1, .L35+4
 551 00f2 FBEE0E1A 		vmov.f32	s3, #-3.0e+1
 552 00f6 B0EE600A 		vmov.f32	s0, s1
 553 00fa B3EE0E1A 		vmov.f32	s2, #3.0e+1
 554              		.loc 1 90 0
 555 00fe 02B0     		add	sp, sp, #8
 556              		.cfi_remember_state
 557              		.cfi_def_cfa_offset 8
 558              		@ sp needed
 559 0100 BDE81040 		pop	{r4, lr}
 560              		.cfi_restore 14
 561              		.cfi_restore 4
 562              		.cfi_def_cfa_offset 0
 563              		.loc 1 89 0
 564 0104 FFF7FEBF 		b	motors_set_position
 565              	.LVL45:
 566              	.L34:
 567              		.cfi_restore_state
 568 0108 FFF7FEFF 		bl	__stack_chk_fail
 569              	.LVL46:
 570              	.L36:
ARM GAS  C:\Users\Marc\AppData\Local\Temp\ccF1iXCm.s 			page 11


 571              		.align	2
 572              	.L35:
 573 010c 00000000 		.word	__stack_chk_guard
 574 0110 CD758640 		.word	1082553805
 575 0114 CD750640 		.word	1074165197
 576 0118 713D6241 		.word	1096957297
 577              		.cfi_endproc
 578              	.LFE297:
 579              		.size	lettre_D, .-lettre_D
 580              		.section	.text.lettre_A,"ax",%progbits
 581              		.align	1
 582              		.p2align 4,,15
 583              		.global	lettre_A
 584              		.syntax unified
 585              		.thumb
 586              		.thumb_func
 587              		.fpu fpv4-sp-d16
 588              		.type	lettre_A, %function
 589              	lettre_A:
 590              	.LFB298:
 591              		.loc 1 92 0
 592              		.cfi_startproc
 593              		@ args = 0, pretend = 0, frame = 8
 594              		@ frame_needed = 0, uses_anonymous_args = 0
 595 0000 10B5     		push	{r4, lr}
 596              		.cfi_def_cfa_offset 8
 597              		.cfi_offset 4, -8
 598              		.cfi_offset 14, -4
 599              		.loc 1 93 0
 600 0002 DFED3D0A 		vldr.32	s1, .L42
 601              		.loc 1 92 0
 602 0006 3D4C     		ldr	r4, .L42+4
 603 0008 82B0     		sub	sp, sp, #8
 604              		.cfi_def_cfa_offset 16
 605              		.loc 1 92 0
 606 000a 2368     		ldr	r3, [r4]
 607 000c 0193     		str	r3, [sp, #4]
 608              		.loc 1 93 0
 609 000e B0EE600A 		vmov.f32	s0, s1
 610 0012 FBEE0E1A 		vmov.f32	s3, #-3.0e+1
 611 0016 B3EE0E1A 		vmov.f32	s2, #3.0e+1
 612 001a FFF7FEFF 		bl	motors_set_position
 613              	.LVL47:
 614              		.loc 1 94 0
 615 001e DFED380A 		vldr.32	s1, .L42+8
 616 0022 F3EE0E1A 		vmov.f32	s3, #3.0e+1
 617 0026 B0EE600A 		vmov.f32	s0, s1
 618 002a B0EE611A 		vmov.f32	s2, s3
 619 002e FFF7FEFF 		bl	motors_set_position
 620              	.LVL48:
 621              		.loc 1 95 0
 622 0032 DFED340A 		vldr.32	s1, .L42+12
 623 0036 FBEE0E1A 		vmov.f32	s3, #-3.0e+1
 624 003a B0EE600A 		vmov.f32	s0, s1
 625 003e B3EE0E1A 		vmov.f32	s2, #3.0e+1
 626 0042 FFF7FEFF 		bl	motors_set_position
 627              	.LVL49:
ARM GAS  C:\Users\Marc\AppData\Local\Temp\ccF1iXCm.s 			page 12


 628              		.loc 1 96 0
 629 0046 F3EE0E1A 		vmov.f32	s3, #3.0e+1
 630 004a F3EE040A 		vmov.f32	s1, #2.0e+1
 631 004e B0EE611A 		vmov.f32	s2, s3
 632 0052 B0EE600A 		vmov.f32	s0, s1
 633 0056 FFF7FEFF 		bl	motors_set_position
 634              	.LVL50:
 635              		.loc 1 97 0
 636 005a DFED2B0A 		vldr.32	s1, .L42+16
 637 005e FBEE0E1A 		vmov.f32	s3, #-3.0e+1
 638 0062 B0EE600A 		vmov.f32	s0, s1
 639 0066 B3EE0E1A 		vmov.f32	s2, #3.0e+1
 640 006a FFF7FEFF 		bl	motors_set_position
 641              	.LVL51:
 642              		.loc 1 98 0
 643 006e F3EE0E1A 		vmov.f32	s3, #3.0e+1
 644 0072 F3EE040A 		vmov.f32	s1, #2.0e+1
 645 0076 B0EE611A 		vmov.f32	s2, s3
 646 007a B0EE600A 		vmov.f32	s0, s1
 647 007e FFF7FEFF 		bl	motors_set_position
 648              	.LVL52:
 649              		.loc 1 99 0
 650 0082 DFED210A 		vldr.32	s1, .L42+16
 651 0086 FBEE0E1A 		vmov.f32	s3, #-3.0e+1
 652 008a B0EE600A 		vmov.f32	s0, s1
 653 008e B3EE0E1A 		vmov.f32	s2, #3.0e+1
 654 0092 FFF7FEFF 		bl	motors_set_position
 655              	.LVL53:
 656              		.loc 1 100 0
 657 0096 F3EE0E1A 		vmov.f32	s3, #3.0e+1
 658 009a F3EE040A 		vmov.f32	s1, #2.0e+1
 659 009e B0EE611A 		vmov.f32	s2, s3
 660 00a2 B0EE600A 		vmov.f32	s0, s1
 661 00a6 FFF7FEFF 		bl	motors_set_position
 662              	.LVL54:
 663              		.loc 1 101 0
 664 00aa DFED160A 		vldr.32	s1, .L42+12
 665 00ae FBEE0E1A 		vmov.f32	s3, #-3.0e+1
 666 00b2 B0EE600A 		vmov.f32	s0, s1
 667 00b6 B3EE0E1A 		vmov.f32	s2, #3.0e+1
 668 00ba FFF7FEFF 		bl	motors_set_position
 669              	.LVL55:
 670              		.loc 1 102 0
 671 00be DFED100A 		vldr.32	s1, .L42+8
 672 00c2 F3EE0E1A 		vmov.f32	s3, #3.0e+1
 673 00c6 B0EE600A 		vmov.f32	s0, s1
 674 00ca B0EE611A 		vmov.f32	s2, s3
 675 00ce FFF7FEFF 		bl	motors_set_position
 676              	.LVL56:
 677              		.loc 1 103 0
 678 00d2 019A     		ldr	r2, [sp, #4]
 679 00d4 2368     		ldr	r3, [r4]
 680 00d6 9A42     		cmp	r2, r3
 681 00d8 0CD1     		bne	.L41
 682 00da DFED0C0A 		vldr.32	s1, .L42+20
 683 00de F3EE0E1A 		vmov.f32	s3, #3.0e+1
 684 00e2 B0EE600A 		vmov.f32	s0, s1
ARM GAS  C:\Users\Marc\AppData\Local\Temp\ccF1iXCm.s 			page 13


 685 00e6 BBEE0E1A 		vmov.f32	s2, #-3.0e+1
 686              		.loc 1 104 0
 687 00ea 02B0     		add	sp, sp, #8
 688              		.cfi_remember_state
 689              		.cfi_def_cfa_offset 8
 690              		@ sp needed
 691 00ec BDE81040 		pop	{r4, lr}
 692              		.cfi_restore 14
 693              		.cfi_restore 4
 694              		.cfi_def_cfa_offset 0
 695              		.loc 1 103 0
 696 00f0 FFF7FEBF 		b	motors_set_position
 697              	.LVL57:
 698              	.L41:
 699              		.cfi_restore_state
 700 00f4 FFF7FEFF 		bl	__stack_chk_fail
 701              	.LVL58:
 702              	.L43:
 703              		.align	2
 704              	.L42:
 705 00f8 500A6F3F 		.word	1064241744
 706 00fc 00000000 		.word	__stack_chk_guard
 707 0100 00002042 		.word	1109393408
 708 0104 0629D140 		.word	1087449350
 709 0108 1757A440 		.word	1084512023
 710 010c 500AEF40 		.word	1089407568
 711              		.cfi_endproc
 712              	.LFE298:
 713              		.size	lettre_A, .-lettre_A
 714              		.text
 715              	.Letext0:
 716              		.file 2 "c:\\users\\marc\\documents\\eclipse_e-puck2\\tools\\gcc-arm-none-eabi-7-2017-q4-major-win
 717              		.file 3 "c:\\users\\marc\\documents\\eclipse_e-puck2\\tools\\gcc-arm-none-eabi-7-2017-q4-major-win
 718              		.file 4 "c:\\users\\marc\\documents\\eclipse_e-puck2\\tools\\gcc-arm-none-eabi-7-2017-q4-major-win
 719              		.file 5 "../lib/e-puck2_main-processor/ChibiOS//os/rt/ports/ARMCMx/compilers/GCC/chtypes.h"
 720              		.file 6 "../lib/e-puck2_main-processor/ChibiOS//os/rt/include/chsystypes.h"
 721              		.file 7 "../lib/e-puck2_main-processor/ChibiOS//os/rt/include/chschd.h"
 722              		.file 8 "../lib/e-puck2_main-processor/ChibiOS//os/ext/CMSIS/include/core_cm4.h"
 723              		.file 9 "../lib/e-puck2_main-processor/ChibiOS//os/ext/CMSIS/ST/system_stm32f4xx.h"
 724              		.file 10 "../lib/e-puck2_main-processor/ChibiOS//os/ext/CMSIS/ST/stm32f407xx.h"
 725              		.file 11 "../lib/e-puck2_main-processor/ChibiOS//os/rt/ports/ARMCMx/chcore.h"
 726              		.file 12 "../lib/e-puck2_main-processor/ChibiOS//os/rt/ports/ARMCMx/chcore_v7m.h"
 727              		.file 13 "../lib/e-puck2_main-processor/ChibiOS//os/rt/include/chdebug.h"
 728              		.file 14 "../lib/e-puck2_main-processor/ChibiOS//os/rt/include/chtm.h"
 729              		.file 15 "../lib/e-puck2_main-processor/ChibiOS//os/rt/include/chstats.h"
 730              		.file 16 "../lib/e-puck2_main-processor/ChibiOS//os/rt/include/chsem.h"
 731              		.file 17 "../lib/e-puck2_main-processor/ChibiOS//os/rt/include/chmtx.h"
 732              		.file 18 "../lib/e-puck2_main-processor/ChibiOS//os/rt/include/chregistry.h"
 733              		.file 19 "../lib/e-puck2_main-processor/ChibiOS//os/rt/include/chevents.h"
 734              		.file 20 "../lib/e-puck2_main-processor/ChibiOS//os/rt/include/chqueues.h"
 735              		.file 21 "../lib/e-puck2_main-processor/ChibiOS//os/hal/ports/STM32/STM32F4xx/stm32_dma.h"
 736              		.file 22 "../lib/e-puck2_main-processor/ChibiOS//os/hal/include/hal_ioblock.h"
 737              		.file 23 "../lib/e-puck2_main-processor/ChibiOS//os/hal/ports/STM32/LLD/GPIOv2/pal_lld.h"
 738              		.file 24 "../lib/e-puck2_main-processor/ChibiOS//os/hal/include/adc.h"
 739              		.file 25 "../lib/e-puck2_main-processor/ChibiOS//os/hal/ports/STM32/STM32F4xx/adc_lld.h"
 740              		.file 26 "../lib/e-puck2_main-processor/ChibiOS//os/hal/include/can.h"
 741              		.file 27 "../lib/e-puck2_main-processor/ChibiOS//os/hal/ports/STM32/LLD/can_lld.h"
ARM GAS  C:\Users\Marc\AppData\Local\Temp\ccF1iXCm.s 			page 14


 742              		.file 28 "../lib/e-puck2_main-processor/ChibiOS//os/hal/include/dac.h"
 743              		.file 29 "../lib/e-puck2_main-processor/ChibiOS//os/hal/ports/STM32/LLD/DACv1/dac_lld.h"
 744              		.file 30 "../lib/e-puck2_main-processor/ChibiOS//os/hal/include/ext.h"
 745              		.file 31 "../lib/e-puck2_main-processor/ChibiOS//os/hal/ports/STM32/LLD/ext_lld.h"
 746              		.file 32 "../lib/e-puck2_main-processor/ChibiOS//os/hal/include/gpt.h"
 747              		.file 33 "../lib/e-puck2_main-processor/ChibiOS//os/hal/ports/STM32/LLD/TIMv1/gpt_lld.h"
 748              		.file 34 "../lib/e-puck2_main-processor/ChibiOS//os/hal/ports/STM32/LLD/TIMv1/stm32_tim.h"
 749              		.file 35 "../lib/e-puck2_main-processor/ChibiOS//os/hal/include/i2c.h"
 750              		.file 36 "../lib/e-puck2_main-processor/ChibiOS//os/hal/ports/STM32/LLD/I2Cv1/i2c_lld.h"
 751              		.file 37 "../lib/e-puck2_main-processor/ChibiOS//os/hal/include/i2s.h"
 752              		.file 38 "../lib/e-puck2_main-processor/ChibiOS//os/hal/ports/STM32/LLD/SPIv1/i2s_lld.h"
 753              		.file 39 "../lib/e-puck2_main-processor/ChibiOS//os/hal/include/pwm.h"
 754              		.file 40 "../lib/e-puck2_main-processor/ChibiOS//os/hal/ports/STM32/LLD/TIMv1/pwm_lld.h"
 755              		.file 41 "../lib/e-puck2_main-processor/ChibiOS//os/hal/include/serial.h"
 756              		.file 42 "../lib/e-puck2_main-processor/ChibiOS//os/hal/ports/STM32/LLD/USARTv1/serial_lld.h"
 757              		.file 43 "../lib/e-puck2_main-processor/ChibiOS//os/hal/include/sdc.h"
 758              		.file 44 "../lib/e-puck2_main-processor/ChibiOS//os/hal/ports/STM32/LLD/sdc_lld.h"
 759              		.file 45 "../lib/e-puck2_main-processor/ChibiOS//os/hal/include/spi.h"
 760              		.file 46 "../lib/e-puck2_main-processor/ChibiOS//os/hal/ports/STM32/LLD/SPIv1/spi_lld.h"
 761              		.file 47 "../lib/e-puck2_main-processor/ChibiOS//os/hal/include/usb.h"
 762              		.file 48 "../lib/e-puck2_main-processor/ChibiOS//os/hal/ports/STM32/LLD/OTGv1/usb_lld.h"
 763              		.file 49 "../lib/e-puck2_main-processor/ChibiOS//os/hal/ports/STM32/LLD/OTGv1/stm32_otg.h"
 764              		.file 50 "c:\\users\\marc\\documents\\eclipse_e-puck2\\tools\\gcc-arm-none-eabi-7-2017-q4-major-wi
 765              		.file 51 "c:\\users\\marc\\documents\\eclipse_e-puck2\\tools\\gcc-arm-none-eabi-7-2017-q4-major-wi
 766              		.file 52 "c:\\users\\marc\\documents\\eclipse_e-puck2\\tools\\gcc-arm-none-eabi-7-2017-q4-major-wi
 767              		.file 53 "c:\\users\\marc\\documents\\eclipse_e-puck2\\tools\\gcc-arm-none-eabi-7-2017-q4-major-wi
 768              		.file 54 "../lib/e-puck2_main-processor/ChibiOS_ext/os/hal/include/../ports/STM32/STM32F4xx/dcmi_l
 769              		.file 55 "c:\\users\\marc\\documents\\eclipse_e-puck2\\tools\\gcc-arm-none-eabi-7-2017-q4-major-wi
 770              		.file 56 "../lib/e-puck2_main-processor/src/msgbus/messagebus.h"
 771              		.file 57 "../lib/e-puck2_main-processor/src/parameter/parameter.h"
 772              		.file 58 "./main.h"
 773              		.file 59 "c:\\users\\marc\\documents\\eclipse_e-puck2\\tools\\gcc-arm-none-eabi-7-2017-q4-major-wi
 774              		.file 60 "./motors_processing.h"