ARM GAS  /var/folders/sw/9r4bn5156wxfd2589391fjvr0000gn/T//ccwLpR6S.s 			page 1


   1              		.cpu cortex-m4
   2              		.eabi_attribute 27, 1
   3              		.eabi_attribute 28, 1
   4              		.eabi_attribute 20, 1
   5              		.eabi_attribute 21, 1
   6              		.eabi_attribute 23, 3
   7              		.eabi_attribute 24, 1
   8              		.eabi_attribute 25, 1
   9              		.eabi_attribute 26, 1
  10              		.eabi_attribute 30, 2
  11              		.eabi_attribute 34, 1
  12              		.eabi_attribute 18, 4
  13              		.file	"motors_processing.c"
  14              		.text
  15              	.Ltext0:
  16              		.cfi_sections	.debug_frame
  17              		.section	.text.moteurs_avance,"ax",%progbits
  18              		.align	1
  19              		.p2align 4,,15
  20              		.global	moteurs_avance
  21              		.syntax unified
  22              		.thumb
  23              		.thumb_func
  24              		.fpu fpv4-sp-d16
  25              		.type	moteurs_avance, %function
  26              	moteurs_avance:
  27              	.LFB294:
  28              		.file 1 "motors_processing.c"
  29              		.loc 1 25 0
  30              		.cfi_startproc
  31              		@ args = 0, pretend = 0, frame = 8
  32              		@ frame_needed = 0, uses_anonymous_args = 0
  33 0000 10B5     		push	{r4, lr}
  34              		.cfi_def_cfa_offset 8
  35              		.cfi_offset 4, -8
  36              		.cfi_offset 14, -4
  37 0002 0A4C     		ldr	r4, .L7
  38 0004 82B0     		sub	sp, sp, #8
  39              		.cfi_def_cfa_offset 16
  40              		.loc 1 25 0
  41 0006 2368     		ldr	r3, [r4]
  42 0008 0193     		str	r3, [sp, #4]
  43              		.loc 1 26 0
  44 000a 4FF4E770 		mov	r0, #462
  45 000e FFF7FEFF 		bl	left_motor_set_speed
  46              	.LVL0:
  47              		.loc 1 27 0
  48 0012 019A     		ldr	r2, [sp, #4]
  49 0014 2368     		ldr	r3, [r4]
  50 0016 9A42     		cmp	r2, r3
  51 0018 06D1     		bne	.L6
  52 001a 4FF4E770 		mov	r0, #462
  53              		.loc 1 28 0
  54 001e 02B0     		add	sp, sp, #8
  55              		.cfi_remember_state
  56              		.cfi_def_cfa_offset 8
  57              		@ sp needed
ARM GAS  /var/folders/sw/9r4bn5156wxfd2589391fjvr0000gn/T//ccwLpR6S.s 			page 2


  58 0020 BDE81040 		pop	{r4, lr}
  59              		.cfi_restore 14
  60              		.cfi_restore 4
  61              		.cfi_def_cfa_offset 0
  62              		.loc 1 27 0
  63 0024 FFF7FEBF 		b	right_motor_set_speed
  64              	.LVL1:
  65              	.L6:
  66              		.cfi_restore_state
  67 0028 FFF7FEFF 		bl	__stack_chk_fail
  68              	.LVL2:
  69              	.L8:
  70              		.align	2
  71              	.L7:
  72 002c 00000000 		.word	__stack_chk_guard
  73              		.cfi_endproc
  74              	.LFE294:
  75              		.size	moteurs_avance, .-moteurs_avance
  76              		.section	.text.motors_stop_pos,"ax",%progbits
  77              		.align	1
  78              		.p2align 4,,15
  79              		.global	motors_stop_pos
  80              		.syntax unified
  81              		.thumb
  82              		.thumb_func
  83              		.fpu fpv4-sp-d16
  84              		.type	motors_stop_pos, %function
  85              	motors_stop_pos:
  86              	.LFB295:
  87              		.loc 1 30 0
  88              		.cfi_startproc
  89              		@ args = 0, pretend = 0, frame = 8
  90              		@ frame_needed = 0, uses_anonymous_args = 0
  91 0000 10B5     		push	{r4, lr}
  92              		.cfi_def_cfa_offset 8
  93              		.cfi_offset 4, -8
  94              		.cfi_offset 14, -4
  95 0002 0C4C     		ldr	r4, .L14
  96 0004 82B0     		sub	sp, sp, #8
  97              		.cfi_def_cfa_offset 16
  98              		.loc 1 30 0
  99 0006 2368     		ldr	r3, [r4]
 100 0008 0193     		str	r3, [sp, #4]
 101              		.loc 1 31 0
 102 000a 0020     		movs	r0, #0
 103 000c FFF7FEFF 		bl	left_motor_set_speed
 104              	.LVL3:
 105              		.loc 1 32 0
 106 0010 0020     		movs	r0, #0
 107 0012 FFF7FEFF 		bl	right_motor_set_speed
 108              	.LVL4:
 109              		.loc 1 34 0
 110 0016 0020     		movs	r0, #0
 111 0018 FFF7FEFF 		bl	left_motor_set_pos
 112              	.LVL5:
 113              		.loc 1 35 0
 114 001c 019A     		ldr	r2, [sp, #4]
ARM GAS  /var/folders/sw/9r4bn5156wxfd2589391fjvr0000gn/T//ccwLpR6S.s 			page 3


 115 001e 2368     		ldr	r3, [r4]
 116 0020 9A42     		cmp	r2, r3
 117 0022 05D1     		bne	.L13
 118 0024 0020     		movs	r0, #0
 119              		.loc 1 37 0
 120 0026 02B0     		add	sp, sp, #8
 121              		.cfi_remember_state
 122              		.cfi_def_cfa_offset 8
 123              		@ sp needed
 124 0028 BDE81040 		pop	{r4, lr}
 125              		.cfi_restore 14
 126              		.cfi_restore 4
 127              		.cfi_def_cfa_offset 0
 128              		.loc 1 35 0
 129 002c FFF7FEBF 		b	right_motor_set_pos
 130              	.LVL6:
 131              	.L13:
 132              		.cfi_restore_state
 133 0030 FFF7FEFF 		bl	__stack_chk_fail
 134              	.LVL7:
 135              	.L15:
 136              		.align	2
 137              	.L14:
 138 0034 00000000 		.word	__stack_chk_guard
 139              		.cfi_endproc
 140              	.LFE295:
 141              		.size	motors_stop_pos, .-motors_stop_pos
 142              		.global	__aeabi_f2d
 143              		.global	__aeabi_d2iz
 144              		.section	.text.motors_set_position,"ax",%progbits
 145              		.align	1
 146              		.p2align 4,,15
 147              		.global	motors_set_position
 148              		.syntax unified
 149              		.thumb
 150              		.thumb_func
 151              		.fpu fpv4-sp-d16
 152              		.type	motors_set_position, %function
 153              	motors_set_position:
 154              	.LFB293:
 155              		.loc 1 7 0
 156              		.cfi_startproc
 157              		@ args = 0, pretend = 0, frame = 16
 158              		@ frame_needed = 0, uses_anonymous_args = 0
 159              	.LVL8:
 160 0000 2DE9704F 		push	{r4, r5, r6, r8, r9, r10, fp, lr}
 161              		.cfi_def_cfa_offset 32
 162              		.cfi_offset 4, -32
 163              		.cfi_offset 5, -28
 164              		.cfi_offset 6, -24
 165              		.cfi_offset 8, -20
 166              		.cfi_offset 9, -16
 167              		.cfi_offset 10, -12
 168              		.cfi_offset 11, -8
 169              		.cfi_offset 14, -4
 170 0004 2DED068B 		vpush.64	{d8, d9, d10}
 171              		.cfi_def_cfa_offset 56
ARM GAS  /var/folders/sw/9r4bn5156wxfd2589391fjvr0000gn/T//ccwLpR6S.s 			page 4


 172              		.cfi_offset 80, -56
 173              		.cfi_offset 81, -52
 174              		.cfi_offset 82, -48
 175              		.cfi_offset 83, -44
 176              		.cfi_offset 84, -40
 177              		.cfi_offset 85, -36
 178              	.LBB14:
 179              	.LBB15:
 180              		.loc 1 46 0
 181 0008 DFED4E8A 		vldr.32	s17, .L25
 182              	.LBE15:
 183              	.LBE14:
 184              		.loc 1 7 0
 185 000c 4E4E     		ldr	r6, .L25+4
 186              	.LBB22:
 187              	.LBB16:
 188              		.loc 1 46 0
 189 000e 20EE280A 		vmul.f32	s0, s0, s17
 190              	.LVL9:
 191 0012 B2EE0A8A 		vmov.f32	s16, #1.3e+1
 192 0016 C0EE087A 		vdiv.f32	s15, s0, s16
 193              	.LBE16:
 194              	.LBE22:
 195              		.loc 1 7 0
 196 001a 84B0     		sub	sp, sp, #16
 197              		.cfi_def_cfa_offset 72
 198              		.loc 1 7 0
 199 001c 3368     		ldr	r3, [r6]
 200 001e 0393     		str	r3, [sp, #12]
 201              	.LVL10:
 202 0020 F0EE419A 		vmov.f32	s19, s2
 203              	.LBB23:
 204              	.LBB17:
 205              		.loc 1 46 0
 206 0024 17EE900A 		vmov	r0, s15
 207              	.LBE17:
 208              	.LBE23:
 209              		.loc 1 7 0
 210 0028 B0EE619A 		vmov.f32	s18, s3
 211 002c B0EE60AA 		vmov.f32	s20, s1
 212              	.LBB24:
 213              	.LBB18:
 214              		.loc 1 46 0
 215 0030 FFF7FEFF 		bl	__aeabi_f2d
 216              	.LVL11:
 217              	.LBE18:
 218              	.LBE24:
 219              	.LBB25:
 220              	.LBB26:
 221 0034 2AEE28AA 		vmul.f32	s20, s20, s17
 222              	.LVL12:
 223              	.LBE26:
 224              	.LBE25:
 225              	.LBB32:
 226              	.LBB19:
 227 0038 41EC100B 		vmov	d0, r0, r1
 228 003c FFF7FEFF 		bl	round
ARM GAS  /var/folders/sw/9r4bn5156wxfd2589391fjvr0000gn/T//ccwLpR6S.s 			page 5


 229              	.LVL13:
 230              	.LBE19:
 231              	.LBE32:
 232              	.LBB33:
 233              	.LBB27:
 234 0040 CAEE087A 		vdiv.f32	s15, s20, s16
 235              	.LBE27:
 236              	.LBE33:
 237              	.LBB34:
 238              	.LBB20:
 239 0044 55EC104B 		vmov	r4, r5, d0
 240              	.LVL14:
 241              	.LBE20:
 242              	.LBE34:
 243              	.LBB35:
 244              	.LBB28:
 245 0048 17EE900A 		vmov	r0, s15
 246 004c FFF7FEFF 		bl	__aeabi_f2d
 247              	.LVL15:
 248              	.LBE28:
 249              	.LBE35:
 250              	.LBB36:
 251              	.LBB37:
 252 0050 69EEA89A 		vmul.f32	s19, s19, s17
 253              	.LVL16:
 254              	.LBE37:
 255              	.LBE36:
 256              	.LBB44:
 257              	.LBB29:
 258 0054 41EC100B 		vmov	d0, r0, r1
 259 0058 FFF7FEFF 		bl	round
 260              	.LVL17:
 261              	.LBE29:
 262              	.LBE44:
 263              	.LBB45:
 264              	.LBB38:
 265 005c C9EE887A 		vdiv.f32	s15, s19, s16
 266              	.LBE38:
 267              	.LBE45:
 268              	.LBB46:
 269              	.LBB30:
 270 0060 59EC108B 		vmov	r8, r9, d0
 271              	.LVL18:
 272              	.LBE30:
 273              	.LBE46:
 274              	.LBB47:
 275              	.LBB39:
 276 0064 17EE900A 		vmov	r0, s15
 277 0068 FFF7FEFF 		bl	__aeabi_f2d
 278              	.LVL19:
 279              	.LBE39:
 280              	.LBE47:
 281              	.LBB48:
 282              	.LBB49:
 283 006c 69EE288A 		vmul.f32	s17, s18, s17
 284              	.LBE49:
 285              	.LBE48:
ARM GAS  /var/folders/sw/9r4bn5156wxfd2589391fjvr0000gn/T//ccwLpR6S.s 			page 6


 286              	.LBB54:
 287              	.LBB40:
 288 0070 41EC100B 		vmov	d0, r0, r1
 289 0074 FFF7FEFF 		bl	round
 290              	.LVL20:
 291              	.LBE40:
 292              	.LBE54:
 293              	.LBB55:
 294              	.LBB50:
 295 0078 C8EE887A 		vdiv.f32	s15, s17, s16
 296              	.LBE50:
 297              	.LBE55:
 298              	.LBB56:
 299              	.LBB41:
 300 007c 5BEC10AB 		vmov	r10, fp, d0
 301              	.LVL21:
 302              	.LBE41:
 303              	.LBE56:
 304              	.LBB57:
 305              	.LBB51:
 306 0080 17EE900A 		vmov	r0, s15
 307 0084 FFF7FEFF 		bl	__aeabi_f2d
 308              	.LVL22:
 309 0088 41EC100B 		vmov	d0, r0, r1
 310 008c FFF7FEFF 		bl	round
 311              	.LVL23:
 312              	.LBE51:
 313              	.LBE57:
 314              	.LBB58:
 315              	.LBB42:
 316 0090 5946     		mov	r1, fp
 317 0092 5046     		mov	r0, r10
 318              	.LBE42:
 319              	.LBE58:
 320              	.LBB59:
 321              	.LBB52:
 322 0094 8DED000B 		vstr.64	d0, [sp]
 323              	.LVL24:
 324              	.LBE52:
 325              	.LBE59:
 326              	.LBB60:
 327              	.LBB43:
 328 0098 FFF7FEFF 		bl	__aeabi_d2iz
 329              	.LVL25:
 330              	.LBE43:
 331              	.LBE60:
 332              		.loc 1 12 0
 333 009c 07EE900A 		vmov	s15, r0	@ int
 334 00a0 F8EEE77A 		vcvt.f32.s32	s15, s15
 335              		.loc 1 15 0
 336 00a4 FDEEE77A 		vcvt.s32.f32	s15, s15
 337 00a8 17EE900A 		vmov	r0, s15	@ int
 338 00ac FFF7FEFF 		bl	left_motor_set_speed
 339              	.LVL26:
 340              	.LBB61:
 341              	.LBB53:
 342              		.loc 1 46 0
ARM GAS  /var/folders/sw/9r4bn5156wxfd2589391fjvr0000gn/T//ccwLpR6S.s 			page 7


 343 00b0 9DED000B 		vldr.64	d0, [sp]
 344 00b4 51EC100B 		vmov	r0, r1, d0
 345 00b8 FFF7FEFF 		bl	__aeabi_d2iz
 346              	.LVL27:
 347              	.LBE53:
 348              	.LBE61:
 349              		.loc 1 13 0
 350 00bc 07EE900A 		vmov	s15, r0	@ int
 351 00c0 F8EEE77A 		vcvt.f32.s32	s15, s15
 352              		.loc 1 16 0
 353 00c4 FDEEE77A 		vcvt.s32.f32	s15, s15
 354 00c8 17EE900A 		vmov	r0, s15	@ int
 355 00cc FFF7FEFF 		bl	right_motor_set_speed
 356              	.LVL28:
 357              	.LBB62:
 358              	.LBB31:
 359              		.loc 1 46 0
 360 00d0 4946     		mov	r1, r9
 361 00d2 4046     		mov	r0, r8
 362 00d4 FFF7FEFF 		bl	__aeabi_d2iz
 363              	.LVL29:
 364              	.LBE31:
 365              	.LBE62:
 366              		.loc 1 10 0
 367 00d8 07EE900A 		vmov	s15, r0	@ int
 368 00dc F8EEE77A 		vcvt.f32.s32	s15, s15
 369              	.LBB63:
 370              	.LBB21:
 371              		.loc 1 46 0
 372 00e0 2046     		mov	r0, r4
 373 00e2 FDEEE77A 		vcvt.s32.f32	s15, s15
 374 00e6 2946     		mov	r1, r5
 375 00e8 17EE904A 		vmov	r4, s15	@ int
 376              	.LVL30:
 377 00ec 002C     		cmp	r4, #0
 378 00ee B8BF     		it	lt
 379 00f0 6442     		rsblt	r4, r4, #0
 380 00f2 FFF7FEFF 		bl	__aeabi_d2iz
 381              	.LVL31:
 382              	.LBE21:
 383              	.LBE63:
 384              		.loc 1 9 0
 385 00f6 07EE900A 		vmov	s15, r0	@ int
 386 00fa F8EEE77A 		vcvt.f32.s32	s15, s15
 387 00fe FDEEE77A 		vcvt.s32.f32	s15, s15
 388 0102 17EE905A 		vmov	r5, s15	@ int
 389 0106 002D     		cmp	r5, #0
 390 0108 B8BF     		it	lt
 391 010a 6D42     		rsblt	r5, r5, #0
 392              	.L17:
 393              		.loc 1 18 0 discriminator 3
 394 010c FFF7FEFF 		bl	right_motor_get_pos
 395              	.LVL32:
 396 0110 0028     		cmp	r0, #0
 397 0112 B8BF     		it	lt
 398 0114 4042     		rsblt	r0, r0, #0
 399 0116 A042     		cmp	r0, r4
ARM GAS  /var/folders/sw/9r4bn5156wxfd2589391fjvr0000gn/T//ccwLpR6S.s 			page 8


 400 0118 F8DB     		blt	.L17
 401              		.loc 1 18 0 is_stmt 0 discriminator 2
 402 011a FFF7FEFF 		bl	left_motor_get_pos
 403              	.LVL33:
 404 011e 0028     		cmp	r0, #0
 405 0120 B8BF     		it	lt
 406 0122 4042     		rsblt	r0, r0, #0
 407 0124 A842     		cmp	r0, r5
 408 0126 F1DB     		blt	.L17
 409              		.loc 1 21 0 is_stmt 1
 410 0128 039A     		ldr	r2, [sp, #12]
 411 012a 3368     		ldr	r3, [r6]
 412 012c 9A42     		cmp	r2, r3
 413 012e 06D1     		bne	.L24
 414              		.loc 1 23 0
 415 0130 04B0     		add	sp, sp, #16
 416              		.cfi_remember_state
 417              		.cfi_def_cfa_offset 56
 418              	.LVL34:
 419              		@ sp needed
 420 0132 BDEC068B 		vldm	sp!, {d8-d10}
 421              		.cfi_restore 84
 422              		.cfi_restore 85
 423              		.cfi_restore 82
 424              		.cfi_restore 83
 425              		.cfi_restore 80
 426              		.cfi_restore 81
 427              		.cfi_def_cfa_offset 32
 428 0136 BDE8704F 		pop	{r4, r5, r6, r8, r9, r10, fp, lr}
 429              		.cfi_restore 14
 430              		.cfi_restore 11
 431              		.cfi_restore 10
 432              		.cfi_restore 9
 433              		.cfi_restore 8
 434              		.cfi_restore 6
 435              		.cfi_restore 5
 436              		.cfi_restore 4
 437              		.cfi_def_cfa_offset 0
 438              	.LVL35:
 439              		.loc 1 21 0
 440 013a FFF7FEBF 		b	motors_stop_pos
 441              	.LVL36:
 442              	.L24:
 443              		.cfi_restore_state
 444 013e FFF7FEFF 		bl	__stack_chk_fail
 445              	.LVL37:
 446              	.L26:
 447 0142 00BF     		.align	2
 448              	.L25:
 449 0144 00007A44 		.word	1148846080
 450 0148 00000000 		.word	__stack_chk_guard
 451              		.cfi_endproc
 452              	.LFE293:
 453              		.size	motors_set_position, .-motors_set_position
 454              		.section	.text.motors_stop_speed,"ax",%progbits
 455              		.align	1
 456              		.p2align 4,,15
ARM GAS  /var/folders/sw/9r4bn5156wxfd2589391fjvr0000gn/T//ccwLpR6S.s 			page 9


 457              		.global	motors_stop_speed
 458              		.syntax unified
 459              		.thumb
 460              		.thumb_func
 461              		.fpu fpv4-sp-d16
 462              		.type	motors_stop_speed, %function
 463              	motors_stop_speed:
 464              	.LFB296:
 465              		.loc 1 39 0
 466              		.cfi_startproc
 467              		@ args = 0, pretend = 0, frame = 8
 468              		@ frame_needed = 0, uses_anonymous_args = 0
 469 0000 10B5     		push	{r4, lr}
 470              		.cfi_def_cfa_offset 8
 471              		.cfi_offset 4, -8
 472              		.cfi_offset 14, -4
 473 0002 094C     		ldr	r4, .L32
 474 0004 82B0     		sub	sp, sp, #8
 475              		.cfi_def_cfa_offset 16
 476              		.loc 1 39 0
 477 0006 2368     		ldr	r3, [r4]
 478 0008 0193     		str	r3, [sp, #4]
 479              		.loc 1 40 0
 480 000a 0020     		movs	r0, #0
 481 000c FFF7FEFF 		bl	left_motor_set_speed
 482              	.LVL38:
 483              		.loc 1 41 0
 484 0010 019A     		ldr	r2, [sp, #4]
 485 0012 2368     		ldr	r3, [r4]
 486 0014 9A42     		cmp	r2, r3
 487 0016 05D1     		bne	.L31
 488 0018 0020     		movs	r0, #0
 489              		.loc 1 42 0
 490 001a 02B0     		add	sp, sp, #8
 491              		.cfi_remember_state
 492              		.cfi_def_cfa_offset 8
 493              		@ sp needed
 494 001c BDE81040 		pop	{r4, lr}
 495              		.cfi_restore 14
 496              		.cfi_restore 4
 497              		.cfi_def_cfa_offset 0
 498              		.loc 1 41 0
 499 0020 FFF7FEBF 		b	right_motor_set_speed
 500              	.LVL39:
 501              	.L31:
 502              		.cfi_restore_state
 503 0024 FFF7FEFF 		bl	__stack_chk_fail
 504              	.LVL40:
 505              	.L33:
 506              		.align	2
 507              	.L32:
 508 0028 00000000 		.word	__stack_chk_guard
 509              		.cfi_endproc
 510              	.LFE296:
 511              		.size	motors_stop_speed, .-motors_stop_speed
 512              		.section	.text.cm_to_steps,"ax",%progbits
 513              		.align	1
ARM GAS  /var/folders/sw/9r4bn5156wxfd2589391fjvr0000gn/T//ccwLpR6S.s 			page 10


 514              		.p2align 4,,15
 515              		.global	cm_to_steps
 516              		.syntax unified
 517              		.thumb
 518              		.thumb_func
 519              		.fpu fpv4-sp-d16
 520              		.type	cm_to_steps, %function
 521              	cm_to_steps:
 522              	.LFB297:
 523              		.loc 1 44 0
 524              		.cfi_startproc
 525              		@ args = 0, pretend = 0, frame = 8
 526              		@ frame_needed = 0, uses_anonymous_args = 0
 527              	.LVL41:
 528              		.loc 1 46 0
 529 0000 DFED107A 		vldr.32	s15, .L38
 530 0004 20EE270A 		vmul.f32	s0, s0, s15
 531              	.LVL42:
 532 0008 F2EE0A7A 		vmov.f32	s15, #1.3e+1
 533 000c C0EE277A 		vdiv.f32	s15, s0, s15
 534              		.loc 1 44 0
 535 0010 10B5     		push	{r4, lr}
 536              		.cfi_def_cfa_offset 8
 537              		.cfi_offset 4, -8
 538              		.cfi_offset 14, -4
 539 0012 0D4C     		ldr	r4, .L38+4
 540 0014 82B0     		sub	sp, sp, #8
 541              		.cfi_def_cfa_offset 16
 542              		.loc 1 44 0
 543 0016 2368     		ldr	r3, [r4]
 544 0018 0193     		str	r3, [sp, #4]
 545              	.LVL43:
 546              		.loc 1 46 0
 547 001a 17EE900A 		vmov	r0, s15
 548 001e FFF7FEFF 		bl	__aeabi_f2d
 549              	.LVL44:
 550 0022 41EC100B 		vmov	d0, r0, r1
 551 0026 FFF7FEFF 		bl	round
 552              	.LVL45:
 553 002a 51EC100B 		vmov	r0, r1, d0
 554 002e FFF7FEFF 		bl	__aeabi_d2iz
 555              	.LVL46:
 556              		.loc 1 48 0
 557 0032 019A     		ldr	r2, [sp, #4]
 558 0034 2368     		ldr	r3, [r4]
 559 0036 9A42     		cmp	r2, r3
 560 0038 01D1     		bne	.L37
 561 003a 02B0     		add	sp, sp, #8
 562              		.cfi_remember_state
 563              		.cfi_def_cfa_offset 8
 564              		@ sp needed
 565 003c 10BD     		pop	{r4, pc}
 566              	.L37:
 567              		.cfi_restore_state
 568 003e FFF7FEFF 		bl	__stack_chk_fail
 569              	.LVL47:
 570              	.L39:
ARM GAS  /var/folders/sw/9r4bn5156wxfd2589391fjvr0000gn/T//ccwLpR6S.s 			page 11


 571 0042 00BF     		.align	2
 572              	.L38:
 573 0044 00007A44 		.word	1148846080
 574 0048 00000000 		.word	__stack_chk_guard
 575              		.cfi_endproc
 576              	.LFE297:
 577              		.size	cm_to_steps, .-cm_to_steps
 578              		.section	.text.steps_to_cm,"ax",%progbits
 579              		.align	1
 580              		.p2align 4,,15
 581              		.global	steps_to_cm
 582              		.syntax unified
 583              		.thumb
 584              		.thumb_func
 585              		.fpu fpv4-sp-d16
 586              		.type	steps_to_cm, %function
 587              	steps_to_cm:
 588              	.LFB298:
 589              		.loc 1 50 0
 590              		.cfi_startproc
 591              		@ args = 0, pretend = 0, frame = 8
 592              		@ frame_needed = 0, uses_anonymous_args = 0
 593              	.LVL48:
 594 0000 00B5     		push	{lr}
 595              		.cfi_def_cfa_offset 4
 596              		.cfi_offset 14, -4
 597 0002 0A4B     		ldr	r3, .L44
 598              		.loc 1 53 0
 599 0004 9FED0A7A 		vldr.32	s14, .L44+4
 600              		.loc 1 50 0
 601 0008 1A68     		ldr	r2, [r3]
 602 000a 83B0     		sub	sp, sp, #12
 603              		.cfi_def_cfa_offset 16
 604              		.loc 1 53 0
 605 000c F2EE0A7A 		vmov.f32	s15, #1.3e+1
 606              		.loc 1 50 0
 607 0010 0192     		str	r2, [sp, #4]
 608              	.LVL49:
 609              		.loc 1 55 0
 610 0012 019A     		ldr	r2, [sp, #4]
 611 0014 1B68     		ldr	r3, [r3]
 612              		.loc 1 53 0
 613 0016 20EE270A 		vmul.f32	s0, s0, s15
 614              	.LVL50:
 615              		.loc 1 55 0
 616 001a 9A42     		cmp	r2, r3
 617 001c 80EE070A 		vdiv.f32	s0, s0, s14
 618              	.LVL51:
 619 0020 02D1     		bne	.L43
 620 0022 03B0     		add	sp, sp, #12
 621              		.cfi_remember_state
 622              		.cfi_def_cfa_offset 4
 623              		@ sp needed
 624 0024 5DF804FB 		ldr	pc, [sp], #4
 625              	.L43:
 626              		.cfi_restore_state
 627 0028 FFF7FEFF 		bl	__stack_chk_fail
ARM GAS  /var/folders/sw/9r4bn5156wxfd2589391fjvr0000gn/T//ccwLpR6S.s 			page 12


 628              	.LVL52:
 629              	.L45:
 630              		.align	2
 631              	.L44:
 632 002c 00000000 		.word	__stack_chk_guard
 633 0030 00007A44 		.word	1148846080
 634              		.cfi_endproc
 635              	.LFE298:
 636              		.size	steps_to_cm, .-steps_to_cm
 637              		.section	.text.moteurs_tourne,"ax",%progbits
 638              		.align	1
 639              		.p2align 4,,15
 640              		.global	moteurs_tourne
 641              		.syntax unified
 642              		.thumb
 643              		.thumb_func
 644              		.fpu fpv4-sp-d16
 645              		.type	moteurs_tourne, %function
 646              	moteurs_tourne:
 647              	.LFB299:
 648              		.loc 1 58 0
 649              		.cfi_startproc
 650              		@ args = 0, pretend = 0, frame = 8
 651              		@ frame_needed = 0, uses_anonymous_args = 0
 652              	.LVL53:
 653              		.loc 1 60 0
 654 0000 DFED197A 		vldr.32	s15, .L55
 655 0004 9FED197A 		vldr.32	s14, .L55+4
 656 0008 60EE277A 		vmul.f32	s15, s0, s15
 657              		.loc 1 58 0
 658 000c 10B5     		push	{r4, lr}
 659              		.cfi_def_cfa_offset 8
 660              		.cfi_offset 4, -8
 661              		.cfi_offset 14, -4
 662              		.loc 1 60 0
 663 000e C7EE870A 		vdiv.f32	s1, s15, s14
 664              		.loc 1 58 0
 665 0012 174C     		ldr	r4, .L55+8
 666 0014 2368     		ldr	r3, [r4]
 667 0016 2DED028B 		vpush.64	{d8}
 668              		.cfi_def_cfa_offset 16
 669              		.cfi_offset 80, -16
 670              		.cfi_offset 81, -12
 671 001a B5EEC00A 		vcmpe.f32	s0, #0
 672 001e F1EE10FA 		vmrs	APSR_nzcv, FPSCR
 673 0022 82B0     		sub	sp, sp, #8
 674              		.cfi_def_cfa_offset 24
 675 0024 F1EE047A 		vmov.f32	s15, #5.0e+0
 676 0028 B9EE041A 		vmov.f32	s2, #-5.0e+0
 677              		.loc 1 66 0
 678 002c D4BF     		ite	le
 679 002e F0EE411A 		vmovle.f32	s3, s2
 680 0032 F0EE671A 		vmovgt.f32	s3, s15
 681              		.loc 1 58 0
 682 0036 B0EE408A 		vmov.f32	s16, s0
 683              		.loc 1 66 0
 684 003a D8BF     		it	le
ARM GAS  /var/folders/sw/9r4bn5156wxfd2589391fjvr0000gn/T//ccwLpR6S.s 			page 13


 685 003c B0EE671A 		vmovle.f32	s2, s15
 686 0040 B0EE600A 		vmov.f32	s0, s1
 687              	.LVL54:
 688              		.loc 1 58 0
 689 0044 0193     		str	r3, [sp, #4]
 690              	.LVL55:
 691              		.loc 1 66 0
 692 0046 FFF7FEFF 		bl	motors_set_position
 693              	.LVL56:
 694              		.loc 1 68 0
 695 004a 019A     		ldr	r2, [sp, #4]
 696 004c 2368     		ldr	r3, [r4]
 697 004e 9A42     		cmp	r2, r3
 698 0050 08D1     		bne	.L54
 699 0052 B0EE480A 		vmov.f32	s0, s16
 700              		.loc 1 69 0
 701 0056 02B0     		add	sp, sp, #8
 702              		.cfi_remember_state
 703              		.cfi_def_cfa_offset 16
 704              		@ sp needed
 705 0058 BDEC028B 		vldm	sp!, {d8}
 706              		.cfi_restore 80
 707              		.cfi_restore 81
 708              		.cfi_def_cfa_offset 8
 709              	.LVL57:
 710 005c BDE81040 		pop	{r4, lr}
 711              		.cfi_restore 14
 712              		.cfi_restore 4
 713              		.cfi_def_cfa_offset 0
 714              		.loc 1 68 0
 715 0060 FFF7FEBF 		b	update_map_angle
 716              	.LVL58:
 717              	.L54:
 718              		.cfi_restore_state
 719 0064 FFF7FEFF 		bl	__stack_chk_fail
 720              	.LVL59:
 721              	.L56:
 722              		.align	2
 723              	.L55:
 724 0068 CD758641 		.word	1099331021
 725 006c DB0FC940 		.word	1086918619
 726 0070 00000000 		.word	__stack_chk_guard
 727              		.cfi_endproc
 728              	.LFE299:
 729              		.size	moteurs_tourne, .-moteurs_tourne
 730              		.text
 731              	.Letext0:
 732              		.file 2 "/Applications/Eclipse_e-puck2.app/Contents/Eclipse_e-puck2/Tools/gcc-arm-none-eabi-7-2017
 733              		.file 3 "/Applications/Eclipse_e-puck2.app/Contents/Eclipse_e-puck2/Tools/gcc-arm-none-eabi-7-2017
 734              		.file 4 "/Applications/Eclipse_e-puck2.app/Contents/Eclipse_e-puck2/Tools/gcc-arm-none-eabi-7-2017
 735              		.file 5 "../lib/e-puck2_main-processor/ChibiOS//os/rt/ports/ARMCMx/compilers/GCC/chtypes.h"
 736              		.file 6 "../lib/e-puck2_main-processor/ChibiOS//os/rt/include/chsystypes.h"
 737              		.file 7 "../lib/e-puck2_main-processor/ChibiOS//os/rt/include/chschd.h"
 738              		.file 8 "../lib/e-puck2_main-processor/ChibiOS//os/ext/CMSIS/include/core_cm4.h"
 739              		.file 9 "../lib/e-puck2_main-processor/ChibiOS//os/ext/CMSIS/ST/system_stm32f4xx.h"
 740              		.file 10 "../lib/e-puck2_main-processor/ChibiOS//os/ext/CMSIS/ST/stm32f407xx.h"
 741              		.file 11 "../lib/e-puck2_main-processor/ChibiOS//os/rt/ports/ARMCMx/chcore.h"
ARM GAS  /var/folders/sw/9r4bn5156wxfd2589391fjvr0000gn/T//ccwLpR6S.s 			page 14


 742              		.file 12 "../lib/e-puck2_main-processor/ChibiOS//os/rt/ports/ARMCMx/chcore_v7m.h"
 743              		.file 13 "../lib/e-puck2_main-processor/ChibiOS//os/rt/include/chdebug.h"
 744              		.file 14 "../lib/e-puck2_main-processor/ChibiOS//os/rt/include/chtm.h"
 745              		.file 15 "../lib/e-puck2_main-processor/ChibiOS//os/rt/include/chstats.h"
 746              		.file 16 "../lib/e-puck2_main-processor/ChibiOS//os/rt/include/chsem.h"
 747              		.file 17 "../lib/e-puck2_main-processor/ChibiOS//os/rt/include/chmtx.h"
 748              		.file 18 "../lib/e-puck2_main-processor/ChibiOS//os/rt/include/chregistry.h"
 749              		.file 19 "../lib/e-puck2_main-processor/ChibiOS//os/rt/include/chevents.h"
 750              		.file 20 "../lib/e-puck2_main-processor/ChibiOS//os/rt/include/chqueues.h"
 751              		.file 21 "../lib/e-puck2_main-processor/ChibiOS//os/hal/ports/STM32/STM32F4xx/stm32_dma.h"
 752              		.file 22 "../lib/e-puck2_main-processor/ChibiOS//os/hal/include/hal_ioblock.h"
 753              		.file 23 "../lib/e-puck2_main-processor/ChibiOS//os/hal/ports/STM32/LLD/GPIOv2/pal_lld.h"
 754              		.file 24 "../lib/e-puck2_main-processor/ChibiOS//os/hal/include/adc.h"
 755              		.file 25 "../lib/e-puck2_main-processor/ChibiOS//os/hal/ports/STM32/STM32F4xx/adc_lld.h"
 756              		.file 26 "../lib/e-puck2_main-processor/ChibiOS//os/hal/include/can.h"
 757              		.file 27 "../lib/e-puck2_main-processor/ChibiOS//os/hal/ports/STM32/LLD/can_lld.h"
 758              		.file 28 "../lib/e-puck2_main-processor/ChibiOS//os/hal/include/dac.h"
 759              		.file 29 "../lib/e-puck2_main-processor/ChibiOS//os/hal/ports/STM32/LLD/DACv1/dac_lld.h"
 760              		.file 30 "../lib/e-puck2_main-processor/ChibiOS//os/hal/include/ext.h"
 761              		.file 31 "../lib/e-puck2_main-processor/ChibiOS//os/hal/ports/STM32/LLD/ext_lld.h"
 762              		.file 32 "../lib/e-puck2_main-processor/ChibiOS//os/hal/include/gpt.h"
 763              		.file 33 "../lib/e-puck2_main-processor/ChibiOS//os/hal/ports/STM32/LLD/TIMv1/gpt_lld.h"
 764              		.file 34 "../lib/e-puck2_main-processor/ChibiOS//os/hal/ports/STM32/LLD/TIMv1/stm32_tim.h"
 765              		.file 35 "../lib/e-puck2_main-processor/ChibiOS//os/hal/include/i2c.h"
 766              		.file 36 "../lib/e-puck2_main-processor/ChibiOS//os/hal/ports/STM32/LLD/I2Cv1/i2c_lld.h"
 767              		.file 37 "../lib/e-puck2_main-processor/ChibiOS//os/hal/include/i2s.h"
 768              		.file 38 "../lib/e-puck2_main-processor/ChibiOS//os/hal/ports/STM32/LLD/SPIv1/i2s_lld.h"
 769              		.file 39 "../lib/e-puck2_main-processor/ChibiOS//os/hal/include/pwm.h"
 770              		.file 40 "../lib/e-puck2_main-processor/ChibiOS//os/hal/ports/STM32/LLD/TIMv1/pwm_lld.h"
 771              		.file 41 "../lib/e-puck2_main-processor/ChibiOS//os/hal/include/serial.h"
 772              		.file 42 "../lib/e-puck2_main-processor/ChibiOS//os/hal/ports/STM32/LLD/USARTv1/serial_lld.h"
 773              		.file 43 "../lib/e-puck2_main-processor/ChibiOS//os/hal/include/sdc.h"
 774              		.file 44 "../lib/e-puck2_main-processor/ChibiOS//os/hal/ports/STM32/LLD/sdc_lld.h"
 775              		.file 45 "../lib/e-puck2_main-processor/ChibiOS//os/hal/include/spi.h"
 776              		.file 46 "../lib/e-puck2_main-processor/ChibiOS//os/hal/ports/STM32/LLD/SPIv1/spi_lld.h"
 777              		.file 47 "../lib/e-puck2_main-processor/ChibiOS//os/hal/include/usb.h"
 778              		.file 48 "../lib/e-puck2_main-processor/ChibiOS//os/hal/ports/STM32/LLD/OTGv1/usb_lld.h"
 779              		.file 49 "../lib/e-puck2_main-processor/ChibiOS//os/hal/ports/STM32/LLD/OTGv1/stm32_otg.h"
 780              		.file 50 "/Applications/Eclipse_e-puck2.app/Contents/Eclipse_e-puck2/Tools/gcc-arm-none-eabi-7-201
 781              		.file 51 "/Applications/Eclipse_e-puck2.app/Contents/Eclipse_e-puck2/Tools/gcc-arm-none-eabi-7-201
 782              		.file 52 "/Applications/Eclipse_e-puck2.app/Contents/Eclipse_e-puck2/Tools/gcc-arm-none-eabi-7-201
 783              		.file 53 "/Applications/Eclipse_e-puck2.app/Contents/Eclipse_e-puck2/Tools/gcc-arm-none-eabi-7-201
 784              		.file 54 "/Applications/Eclipse_e-puck2.app/Contents/Eclipse_e-puck2/Tools/gcc-arm-none-eabi-7-201
 785              		.file 55 "../lib/e-puck2_main-processor/ChibiOS_ext/os/hal/include/../ports/STM32/STM32F4xx/dcmi_l
 786              		.file 56 "/Applications/Eclipse_e-puck2.app/Contents/Eclipse_e-puck2/Tools/gcc-arm-none-eabi-7-201
 787              		.file 57 "../lib/e-puck2_main-processor/src/msgbus/messagebus.h"
 788              		.file 58 "../lib/e-puck2_main-processor/src/parameter/parameter.h"
 789              		.file 59 "./main.h"
 790              		.file 60 "./game_management.h"
 791              		.file 61 "../lib/e-puck2_main-processor/src/motors.h"